BL51 BANKED LINKER/LOCATER V6.22                                                        06/25/2018  15:28:32  PAGE 1


BL51 BANKED LINKER/LOCATER V6.22, INVOKED BY:
C:\KEIL\C51\BIN\BL51.EXE .\obj\STARTUP.obj, .\obj\AdcDrv.obj, .\obj\Calibration.obj, .\obj\CmdSub.obj, .\obj\Comm.obj, .
>> \obj\Delay.obj, .\obj\Filter.obj, .\obj\Flash.obj, .\obj\Init.obj, .\obj\Main.obj, .\obj\ModBusCrc.obj, .\obj\ModBusR
>> tu.obj, .\obj\Send.obj, .\obj\Sensor.obj, .\obj\Sub.obj, .\obj\Timer.obj, .\obj\AngApp.obj TO .\obj\WTAL PRINT (.\lis
>> t\WTAL.m51) RAMSIZE (256)


MEMORY MODEL: SMALL WITH FLOATING POINT ARITHMETIC


INPUT MODULES INCLUDED:
  .\obj\STARTUP.obj (?C_STARTUP)
  .\obj\AdcDrv.obj (ADCDRV)
  .\obj\Calibration.obj (CALIBRATION)
  .\obj\CmdSub.obj (CMDSUB)
  .\obj\Comm.obj (COMM)
  .\obj\Delay.obj (DELAY)
  .\obj\Filter.obj (FILTER)
  .\obj\Flash.obj (FLASH)
  .\obj\Init.obj (INIT)
  .\obj\Main.obj (MAIN)
  .\obj\ModBusCrc.obj (MODBUSCRC)
  .\obj\ModBusRtu.obj (MODBUSRTU)
  .\obj\Send.obj (SEND)
  .\obj\Sensor.obj (SENSOR)
  .\obj\Sub.obj (SUB)
  .\obj\Timer.obj (TIMER)
  .\obj\AngApp.obj (ANGAPP)
  C:\KEIL\C51\LIB\C51FPS.LIB (?C?FPADD)
  C:\KEIL\C51\LIB\C51FPS.LIB (?C?FPMUL)
  C:\KEIL\C51\LIB\C51FPS.LIB (?C?FPDIV)
  C:\KEIL\C51\LIB\C51FPS.LIB (?C?FPCMP)
  C:\KEIL\C51\LIB\C51FPS.LIB (?C?FCAST)
  C:\KEIL\C51\LIB\C51FPS.LIB (?C?CASTF)
  C:\KEIL\C51\LIB\C51FPS.LIB (SQRT)
  C:\KEIL\C51\LIB\C51FPS.LIB (SIN)
  C:\KEIL\C51\LIB\C51FPS.LIB (ASIN)
  C:\KEIL\C51\LIB\C51FPS.LIB (?C?FPGETOPN)
  C:\KEIL\C51\LIB\C51FPS.LIB (?C?FPSERIES)
  C:\KEIL\C51\LIB\C51FPS.LIB (ATAN)
  C:\KEIL\C51\LIB\C51S.LIB (?C_INIT)
  C:\KEIL\C51\LIB\C51S.LIB (?C?CLDPTR)
  C:\KEIL\C51\LIB\C51S.LIB (?C?CLDOPTR)
  C:\KEIL\C51\LIB\C51S.LIB (?C?CILDPTR)
  C:\KEIL\C51\LIB\C51S.LIB (?C?CSTPTR)
  C:\KEIL\C51\LIB\C51S.LIB (?C?CSTOPTR)
  C:\KEIL\C51\LIB\C51S.LIB (?C?IMUL)
  C:\KEIL\C51\LIB\C51S.LIB (?C?UIDIV)
  C:\KEIL\C51\LIB\C51S.LIB (?C?SIDIV)
  C:\KEIL\C51\LIB\C51S.LIB (?C?IILDX)
  C:\KEIL\C51\LIB\C51S.LIB (?C?ILDOPTR)
  C:\KEIL\C51\LIB\C51S.LIB (?C?ISTPTR)
  C:\KEIL\C51\LIB\C51S.LIB (?C?ISTOPTR)
  C:\KEIL\C51\LIB\C51S.LIB (?C?LADD)
  C:\KEIL\C51\LIB\C51S.LIB (?C?LMUL)
  C:\KEIL\C51\LIB\C51S.LIB (?C?ULDIV)
  C:\KEIL\C51\LIB\C51S.LIB (?C?SLDIV)
  C:\KEIL\C51\LIB\C51S.LIB (?C?LNEG)
BL51 BANKED LINKER/LOCATER V6.22                                                      06/25/2018  15:28:32  PAGE 2


  C:\KEIL\C51\LIB\C51S.LIB (?C?SLCMP)
  C:\KEIL\C51\LIB\C51S.LIB (?C?ULCMP)
  C:\KEIL\C51\LIB\C51S.LIB (?C?ULSHR)
  C:\KEIL\C51\LIB\C51S.LIB (?C?LSHL)
  C:\KEIL\C51\LIB\C51S.LIB (?C?LLDPTR)
  C:\KEIL\C51\LIB\C51S.LIB (?C?LLDOPTR)
  C:\KEIL\C51\LIB\C51S.LIB (?C?LSTPTR)
  C:\KEIL\C51\LIB\C51S.LIB (?C?LSTOPTR)
  C:\KEIL\C51\LIB\C51S.LIB (?C?LLDXDATA)
  C:\KEIL\C51\LIB\C51S.LIB (?C?LLDCODE)
  C:\KEIL\C51\LIB\C51S.LIB (?C?LLDXDATA0)
  C:\KEIL\C51\LIB\C51S.LIB (?C?LLDCODE0)
  C:\KEIL\C51\LIB\C51S.LIB (?C?LLDOPTR0)
  C:\KEIL\C51\LIB\C51S.LIB (?C?LSTXDATA)
  C:\KEIL\C51\LIB\C51S.LIB (?C?LSTKXDATA)
  C:\KEIL\C51\LIB\C51S.LIB (?C?LSTKOPTR)
  C:\KEIL\C51\LIB\C51S.LIB (?C?OFFXADD)
  C:\KEIL\C51\LIB\C51S.LIB (?C?PLDIIDATA)
  C:\KEIL\C51\LIB\C51S.LIB (?C?PLDXDATA)
  C:\KEIL\C51\LIB\C51S.LIB (?C?PSTXDATA)
  C:\KEIL\C51\LIB\C51S.LIB (?C?PLDOPTR)
  C:\KEIL\C51\LIB\C51S.LIB (?C?PSTOPTR)
  C:\KEIL\C51\LIB\C51S.LIB (?C?CCASE)
  C:\KEIL\C51\LIB\C51S.LIB (?C?ICASE)
  C:\KEIL\C51\LIB\C51S.LIB (?C?ICALL)
  C:\KEIL\C51\LIB\C51S.LIB (STRNCMP)
  C:\KEIL\C51\LIB\C51S.LIB (STRNCPY)
  C:\KEIL\C51\LIB\C51S.LIB (?C?LLDIDATA)
  C:\KEIL\C51\LIB\C51S.LIB (?C?LLDPDATA)
  C:\KEIL\C51\LIB\C51S.LIB (?C?LLDIDATA0)
  C:\KEIL\C51\LIB\C51S.LIB (?C?LLDPDATA0)
  C:\KEIL\C51\LIB\C51S.LIB (?C?LSTIDATA)
  C:\KEIL\C51\LIB\C51S.LIB (?C?LSTPDATA)
  C:\KEIL\C51\LIB\C51S.LIB (?C?LSTKIDATA)
  C:\KEIL\C51\LIB\C51S.LIB (?C?LSTKPDATA)
  C:\KEIL\C51\LIB\C51S.LIB (?C?PLDIDATA)
  C:\KEIL\C51\LIB\C51S.LIB (?C?PSTIDATA)
  C:\KEIL\C51\LIB\C51S.LIB (?C?PLDPDATA)
  C:\KEIL\C51\LIB\C51S.LIB (?C?PSTPDATA)
  C:\KEIL\C51\LIB\C51S.LIB (?C?PLDCODE)


LINK MAP OF MODULE:  .\obj\WTAL (?C_STARTUP)


            TYPE    BASE      LENGTH    RELOCATION   SEGMENT NAME
            -----------------------------------------------------

            * * * * * * *   D A T A   M E M O R Y   * * * * * * *
            REG     0000H     0008H     ABSOLUTE     "REG BANK 0"
            DATA    0008H     000AH     UNIT         ?DT?SEND
            DATA    0012H     0004H     UNIT         ?DT?CMDSUB
            DATA    0016H     0002H     UNIT         ?DT?TIMER
            IDATA   0018H     0003H     UNIT         ?ID?ADCDRV
                    001BH     0005H                  *** GAP ***
            BIT     0020H.0   0000H.2   UNIT         ?BI?COMM
            BIT     0020H.2   0000H.2   UNIT         _BIT_GROUP_
BL51 BANKED LINKER/LOCATER V6.22                                                      06/25/2018  15:28:32  PAGE 3


                    0020H.4   0000H.4                *** GAP ***
            DATA    0021H     004FH     UNIT         _DATA_GROUP_
            IDATA   0070H     0001H     UNIT         ?STACK

            * * * * * * *  X D A T A   M E M O R Y  * * * * * * *
            XDATA   0000H     02CCH     UNIT         ?XD?CALIBRATION
            XDATA   02CCH     0200H     UNIT         ?XD?FLASH
            XDATA   04CCH     019BH     UNIT         ?XD?ADCDRV
            XDATA   0667H     019AH     UNIT         ?XD?COMM
            XDATA   0801H     00C9H     UNIT         ?XD?SEND
            XDATA   08CAH     003FH     UNIT         ?XD?ANGAPP
            XDATA   0909H     0031H     UNIT         ?XD?SENSOR
            XDATA   093AH     0014H     UNIT         ?XD?CMDSUB
            XDATA   094EH     000DH     UNIT         ?XD?MODBUSRTU
            XDATA   095BH     0008H     UNIT         _XDATA_GROUP_
            XDATA   0963H     0004H     UNIT         ?XD?TIMER
            XDATA   0967H     0001H     UNIT         ?XD?MAIN

            * * * * * * *   C O D E   M E M O R Y   * * * * * * *
            CODE    0000H     0003H     ABSOLUTE     
            CODE    0003H     0020H     UNIT         ?PR?_SUB_INT8U2STR?SUB
            CODE    0023H     0003H     ABSOLUTE     
            CODE    0026H     0004H     UNIT         ?PR?ADC_ENABLE?ADCDRV
                    002AH     0001H                  *** GAP ***
            CODE    002BH     0003H     ABSOLUTE     
            CODE    002EH     001CH     UNIT         ?PR?SUB_SENDSYSNUM?SUB
                    004AH     0001H                  *** GAP ***
            CODE    004BH     0003H     ABSOLUTE     
            CODE    004EH     0A82H     UNIT         ?C?LIB_CODE
            CODE    0AD0H     0632H     UNIT         ?PR?_MODRTU_RDVAL?MODBUSRTU
            CODE    1102H     0510H     UNIT         ?PR?_SEND_SDEAL?SEND
            CODE    1612H     0444H     UNIT         ?PR?_MODRTU_WRVAL?MODBUSRTU
            CODE    1A56H     0200H     UNIT         ?CO?MODBUSCRC
            CODE    1C56H     01BFH     UNIT         ?CO?SEND
            CODE    1E15H     0198H     UNIT         ?PR?_RAM_CALDATA2BUF?FLASH
            CODE    1FADH     0198H     UNIT         ?PR?_SEND_RDEAL?SEND
            CODE    2145H     016EH     UNIT         ?PR?SIN?SIN
            CODE    22B3H     0144H     UNIT         ?PR?_SEND_CDEAL?SEND
            CODE    23F7H     0139H     UNIT         ?PR?_SUB_STR2INT32S?SUB
            CODE    2530H     0128H     UNIT         ?PR?ATAN?ATAN
            CODE    2658H     011FH     UNIT         ?PR?_RAM_BUF2CALDATA?FLASH
            CODE    2777H     00FCH     UNIT         ?PR?_ANG_CALCPRM?CALIBRATION
            CODE    2873H     00F3H     UNIT         ?PR?MODBUSRTU
            CODE    2966H     00EFH     UNIT         ?PR?FLASH_CALDATAINIT?FLASH
            CODE    2A55H     00E9H     UNIT         ?PR?_MODRTU_WRREG?MODBUSRTU
            CODE    2B3EH     00E4H     UNIT         ?PR?_MODRTU_RDREG?MODBUSRTU
            CODE    2C22H     00DDH     UNIT         ?PR?SEND_TIMEPROC?SEND
            CODE    2CFFH     00DBH     UNIT         ?PR?_SLIDEWINFILTER?FILTER
            CODE    2DDAH     00CDH     UNIT         ?PR?_SUB_INT32S2STR?SUB
            CODE    2EA7H     00AEH     UNIT         ?PR?ANGCALDATAINIT?CALIBRATION
            CODE    2F55H     00AEH     UNIT         ?PR?SUB
            CODE    3003H     00AAH     UNIT         ?PR?SQRT?SQRT
            CODE    30ADH     009AH     UNIT         ?PR?_ADC_XCALPROC?CMDSUB
            CODE    3147H     009AH     UNIT         ?PR?_ADC_YCALPROC?CMDSUB
            CODE    31E1H     0099H     UNIT         ?PR?_PANGCALC?ANGAPP
            CODE    327AH     008CH     UNIT         ?C_C51STARTUP
            CODE    3306H     0085H     UNIT         ?PR?_ADCFILTER?ADCDRV
BL51 BANKED LINKER/LOCATER V6.22                                                      06/25/2018  15:28:32  PAGE 4


            CODE    338BH     0085H     UNIT         ?PR?CALIBRATION
            CODE    3410H     0085H     UNIT         ?PR?FLASH
            CODE    3495H     0078H     UNIT         ?PR?COMM_ISR?COMM
            CODE    350DH     0074H     UNIT         ?PR?_SNFILTER?SENSOR
            CODE    3581H     0074H     UNIT         ?PR?_SUB_INT16U2STR?SUB
            CODE    35F5H     0071H     UNIT         ?PR?ADC_ISR?ADCDRV
            CODE    3666H     0070H     UNIT         ?PR?SEND
            CODE    36D6H     006FH     UNIT         ?PR?_STRNCMP?STRNCMP
            CODE    3745H     006DH     UNIT         ?PR?_GETANGCALCVAL?SENSOR
            CODE    37B2H     006CH     UNIT         ?PR?_ANG_CALC?SENSOR
            CODE    381EH     006BH     UNIT         ?PR?_ADC_SAVEANDSWITCH?ADCDRV
            CODE    3889H     0066H     UNIT         ?PR?CALIBINIT?CALIBRATION
            CODE    38EFH     0064H     UNIT         ?PR?SENSOR
            CODE    3953H     0063H     UNIT         ?PR?_SUB_BUFBUBBLE?SUB
            CODE    39B6H     005DH     UNIT         ?PR?_FILTER_1ST?FILTER
            CODE    3A13H     005CH     UNIT         ?PR?_SEND_UDEAL?SEND
            CODE    3A6FH     005BH     UNIT         ?PR?_FLASH_BUFWR?FLASH
            CODE    3ACAH     005AH     UNIT         ?PR?SNINIT?SENSOR
            CODE    3B24H     005AH     UNIT         ?PR?_SUB_SENDANGXCAL?SUB
            CODE    3B7EH     005AH     UNIT         ?PR?ANGINIT?ANGAPP
            CODE    3BD8H     0055H     UNIT         ?PR?_ANGCHKDIFF?CMDSUB
            CODE    3C2DH     0055H     UNIT         ?PR?ADC_XCALSTOP?CMDSUB
            CODE    3C82H     0055H     UNIT         ?PR?ADC_YCALSTOP?CMDSUB
            CODE    3CD7H     0053H     UNIT         ?PR?_SEND_WDEAL?SEND
            CODE    3D2AH     0052H     UNIT         ?PR?_FLOATTOINT?MODBUSRTU
            CODE    3D7CH     0052H     UNIT         ?PR?_STRNCPY?STRNCPY
            CODE    3DCEH     004FH     UNIT         ?PR?SUB_SENDPRMTALL?SUB
            CODE    3E1DH     004AH     UNIT         ?PR?ADCENTITYINIT?ADCDRV
            CODE    3E67H     004AH     UNIT         ?PR?GETXANGALLSETVAL?ANGAPP
            CODE    3EB1H     004AH     UNIT         ?PR?GETYANGALLSETVAL?ANGAPP
            CODE    3EFBH     0048H     UNIT         ?PR?_SN_DATAINIT?SENSOR
            CODE    3F43H     0047H     UNIT         ?PR?_SUB_SENDANGYCAL?SUB
            CODE    3F8AH     0046H     UNIT         ?CO?SUB
            CODE    3FD0H     0044H     UNIT         ?C?LDIV
            CODE    4014H     0043H     UNIT         ?PR?_COMM_GETTXCHAR?COMM
            CODE    4057H     0043H     UNIT         ?PR?_COMM_GETCHAR?COMM
            CODE    409AH     0043H     UNIT         ?PR?_FLASH_BUFRD?FLASH
            CODE    40DDH     0042H     UNIT         ?PR?SNPROC?SENSOR
            CODE    411FH     0040H     UNIT         ?PR?_COMM_PUTCHAR?COMM
            CODE    415FH     0040H     UNIT         ?PR?_SUB_UBUFSWITCH?SUB
            CODE    419FH     003FH     UNIT         ?PR?FLASHAREA_USER?FLASH
            CODE    41DEH     003DH     UNIT         ?PR?_FLASH_CALDATAUPDATE_USER?FLASH
            CODE    421BH     003DH     UNIT         ?PR?_SUB_SBUFSWITCH?SUB
            CODE    4258H     003DH     UNIT         ?PR?TIMER2_ISR?TIMER
            CODE    4295H     003CH     UNIT         ?PR?CMDSUB
            CODE    42D1H     003BH     UNIT         ?PR?ASIN?ASIN
            CODE    430CH     0039H     UNIT         ?PR?_COMM_PUTRXCHAR?COMM
            CODE    4345H     0039H     UNIT         ?PR?FLASH_CALDATAUPDATE?FLASH
            CODE    437EH     0039H     UNIT         ?PR?_MODRTU_RLYERROR?MODBUSRTU
            CODE    43B7H     0039H     UNIT         ?PR?SUB_SENDANGXYP?SUB
            CODE    43F0H     0038H     UNIT         ?PR?SUB_SENDID?SUB
            CODE    4428H     0035H     UNIT         ?PR?_MODBUSCRCCNT?MODBUSCRC
            CODE    445DH     0035H     UNIT         ?PR?_SUB_STR2INT8U?SUB
            CODE    4492H     0032H     UNIT         ?PR?_FLASHUPDATE?FLASH
            CODE    44C4H     0030H     UNIT         ?PR?_MODRTU_RXPROC?MODBUSRTU
            CODE    44F4H     002FH     UNIT         ?PR?INIT_SYSTEMPARA?INIT
            CODE    4523H     002EH     UNIT         ?PR?_MODRTU_SETZERO?MODBUSRTU
BL51 BANKED LINKER/LOCATER V6.22                                                      06/25/2018  15:28:32  PAGE 5


            CODE    4551H     002EH     UNIT         ?PR?GETANGP?ANGAPP
            CODE    457FH     002DH     UNIT         ?PR?ADC_SETINIT?ADCDRV
            CODE    45ACH     002BH     UNIT         ?PR?MAIN?MAIN
            CODE    45D7H     0029H     UNIT         ?PR?_FLASH_CHECKSUM?FLASH
            CODE    4600H     0029H     UNIT         ?PR?ANGAPP
            CODE    4629H     0028H     UNIT         ?PR?SUB_SENDANGXY?SUB
            CODE    4651H     0028H     UNIT         ?PR?TIMER2_TASKINISR?TIMER
            CODE    4679H     0027H     UNIT         ?C_INITSEG
            CODE    46A0H     0026H     UNIT         ?PR?SYS_PORTINIT?INIT
            CODE    46C6H     0025H     UNIT         ?PR?_MODRTU_WRADDR?MODBUSRTU
            CODE    46EBH     0024H     UNIT         ?PR?_VALINRANGE?FILTER
            CODE    470FH     0023H     UNIT         ?PR?_FLASH_PAGEERASE?FLASH
            CODE    4732H     0022H     UNIT         ?PR?_MODRTU_WRBAUD?MODBUSRTU
            CODE    4754H     0022H     UNIT         ?PR?_SUB_INT16S2STR?SUB
            CODE    4776H     0021H     UNIT         ?PR?_COMM_PUTSTR?COMM
            CODE    4797H     0020H     UNIT         ?PR?TIMER2_INIT?TIMER
            CODE    47B7H     001FH     UNIT         ?PR?_SETANGZERO?ANGAPP
            CODE    47D6H     001EH     UNIT         ?PR?COMM_HARDWAREINIT?COMM
            CODE    47F4H     001EH     UNIT         ?PR?_SETANGZEROADD?ANGAPP
            CODE    4812H     001CH     UNIT         ?PR?TIMER
            CODE    482EH     001BH     UNIT         ?PR?INIT_ALL?INIT
            CODE    4849H     001AH     UNIT         ?CO?ADCDRV
            CODE    4863H     0019H     UNIT         ?PR?COMM_TIMERPROC?COMM
            CODE    487CH     0019H     UNIT         ?PR?RAM_CALDATAINIT_USER?FLASH
            CODE    4895H     0019H     UNIT         ?PR?SYS_CLKINIT?INIT
            CODE    48AEH     0018H     UNIT         ?PR?_MODRTU_WR16U?MODBUSRTU
            CODE    48C6H     0017H     UNIT         ?PR?ADC_XCALSTA?CMDSUB
            CODE    48DDH     0017H     UNIT         ?PR?ADC_YCALSTA?CMDSUB
            CODE    48F4H     0017H     UNIT         ?PR?_DELAY_MS?DELAY
            CODE    490BH     0016H     UNIT         ?PR?COMM_SOFTWAREINIT?COMM
            CODE    4921H     0016H     UNIT         ?PR?_MODRTU_CHKCRC?MODBUSRTU
            CODE    4937H     0014H     UNIT         ?PR?FLASH_USERDATAUPDATE?FLASH
            CODE    494BH     0012H     UNIT         ?PR?_SETANGXCALADCVAL?CALIBRATION
            CODE    495DH     0012H     UNIT         ?PR?_SETANGYCALADCVAL?CALIBRATION
            CODE    496FH     0012H     UNIT         ?PR?TIMER2_TASKINMAIN?TIMER
            CODE    4981H     0011H     UNIT         ?PR?_ANG_WRADCVAL?CALIBRATION
            CODE    4992H     0011H     UNIT         ?PR?SUB_SENDOK?SUB
            CODE    49A3H     0011H     UNIT         ?PR?SUB_SENDERR?SUB
            CODE    49B4H     0011H     UNIT         ?PR?SUB_SENDSOFTVER?SUB
            CODE    49C5H     0010H     UNIT         ?PR?_COMM_PUTINT8U?SUB
            CODE    49D5H     000FH     UNIT         ?PR?DELAY_100US?DELAY
            CODE    49E4H     000FH     UNIT         ?PR?SNXDATAINIT?SENSOR
            CODE    49F3H     000FH     UNIT         ?PR?SNYDATAINIT?SENSOR
            CODE    4A02H     000FH     UNIT         ?PR?_SNXFILTER?SENSOR
            CODE    4A11H     000FH     UNIT         ?PR?_SNYFILTER?SENSOR
            CODE    4A20H     000EH     UNIT         ?PR?_ANG_WRANGVAL?CALIBRATION
            CODE    4A2EH     000EH     UNIT         ?PR?FLASHCHK?FLASH
            CODE    4A3CH     000EH     UNIT         ?PR?_COMM_PUTINT32S?SUB
            CODE    4A4AH     000EH     UNIT         ?PR?_COMM_PUTINT16S?SUB
            CODE    4A58H     000EH     UNIT         ?PR?_COMM_PUTINT16U?SUB
            CODE    4A66H     000DH     UNIT         ?PR?_MODRTU_RD16U?MODBUSRTU
            CODE    4A73H     000CH     UNIT         ?PR?ADC_INIT?ADCDRV
            CODE    4A7FH     000BH     UNIT         ?PR?_ANG_RDANGVAL?CALIBRATION
            CODE    4A8AH     000BH     UNIT         ?PR?_ANG_RDADCVAL?CALIBRATION
            CODE    4A95H     000BH     UNIT         ?PR?_MODRTU_WRCRC?MODBUSRTU
            CODE    4AA0H     000AH     UNIT         ?PR?DELAY_MS_?DELAY
            CODE    4AAAH     000AH     UNIT         ?PR?COMM_PUTNEWLINE?SUB
BL51 BANKED LINKER/LOCATER V6.22                                                      06/25/2018  15:28:32  PAGE 6


            CODE    4AB4H     0009H     UNIT         ?PR?ADC_GETXVAL?ADCDRV
            CODE    4ABDH     0009H     UNIT         ?PR?ADC_GETYVAL?ADCDRV
            CODE    4AC6H     0009H     UNIT         ?PR?ADC_GETTEMP?ADCDRV
            CODE    4ACFH     0009H     UNIT         ?PR?_SETANGXCALANGVAL?CALIBRATION
            CODE    4AD8H     0009H     UNIT         ?PR?_SETANGYCALANGVAL?CALIBRATION
            CODE    4AE1H     0009H     UNIT         ?PR?_MODRTU_8TO16?MODBUSRTU
            CODE    4AEAH     0009H     UNIT         ?PR?GETXFTVAL?SENSOR
            CODE    4AF3H     0009H     UNIT         ?PR?GETYFTVAL?SENSOR
            CODE    4AFCH     0009H     UNIT         ?PR?_SUB_SENDOFFSET?SUB
            CODE    4B05H     0008H     UNIT         ?PR?ADCDRV
            CODE    4B0DH     0008H     UNIT         ?PR?_SETANGCALCNT?CALIBRATION
            CODE    4B15H     0007H     UNIT         ?PR?_GETANGXCALANGVAL?CALIBRATION
            CODE    4B1CH     0007H     UNIT         ?PR?_GETANGYCALANGVAL?CALIBRATION
            CODE    4B23H     0007H     UNIT         ?PR?_GETANGXCALADCVAL?CALIBRATION
            CODE    4B2AH     0007H     UNIT         ?PR?_GETANGYCALADCVAL?CALIBRATION
            CODE    4B31H     0007H     UNIT         ?PR?COMM
            CODE    4B38H     0007H     UNIT         ?PR?GETXANG?SENSOR
            CODE    4B3FH     0007H     UNIT         ?PR?GETYANG?SENSOR
            CODE    4B46H     0007H     UNIT         ?PR?GETANGXSYSZERO?ANGAPP
            CODE    4B4DH     0007H     UNIT         ?PR?GETANGYSYSZERO?ANGAPP
            CODE    4B54H     0007H     UNIT         ?PR?GETANGXUSRZERO?ANGAPP
            CODE    4B5BH     0007H     UNIT         ?PR?GETANGYUSRZERO?ANGAPP
            CODE    4B62H     0007H     UNIT         ?PR?GETANGXINST?ANGAPP
            CODE    4B69H     0007H     UNIT         ?PR?GETANGYINST?ANGAPP
            CODE    4B70H     0007H     UNIT         ?PR?GETANGXZEROUSR?ANGAPP
            CODE    4B77H     0007H     UNIT         ?PR?GETANGYZEROUSR?ANGAPP
            CODE    4B7EH     0007H     UNIT         ?PR?GETANGXRELSYS?ANGAPP
            CODE    4B85H     0007H     UNIT         ?PR?GETANGYRELSYS?ANGAPP
            CODE    4B8CH     0006H     UNIT         ?PR?GETANGXCALCNT?CALIBRATION
            CODE    4B92H     0006H     UNIT         ?PR?GETANGYCALCNT?CALIBRATION
            CODE    4B98H     0006H     UNIT         ?PR?_SETANGXCALCNT?CALIBRATION
            CODE    4B9EH     0006H     UNIT         ?PR?_SETANGYCALCNT?CALIBRATION
            CODE    4BA4H     0006H     UNIT         ?PR?ANGXCALCPRM?CALIBRATION
            CODE    4BAAH     0006H     UNIT         ?PR?ANGYCALCPRM?CALIBRATION
            CODE    4BB0H     0006H     UNIT         ?PR?COMM_SENDSTA?COMM
            CODE    4BB6H     0006H     UNIT         ?PR?ANGXCALC?SENSOR
            CODE    4BBCH     0006H     UNIT         ?PR?ANGYCALC?SENSOR
            CODE    4BC2H     0006H     UNIT         ?PR?GETFILTERCNT?SENSOR
            CODE    4BC8H     0006H     UNIT         ?PR?_SETFILTERCNT?SENSOR
            CODE    4BCEH     0006H     UNIT         ?PR?_SETANGXSYSZERO?ANGAPP
            CODE    4BD4H     0006H     UNIT         ?PR?_SETANGYSYSZERO?ANGAPP
            CODE    4BDAH     0006H     UNIT         ?PR?_SETANGXUSRZERO?ANGAPP
            CODE    4BE0H     0006H     UNIT         ?PR?_SETANGYUSRZERO?ANGAPP
            CODE    4BE6H     0006H     UNIT         ?PR?_SETANGXINST?ANGAPP
            CODE    4BECH     0006H     UNIT         ?PR?_SETANGYINST?ANGAPP
            CODE    4BF2H     0004H     UNIT         ?PR?ADC_VREFINIT?ADCDRV
            CODE    4BF6H     0004H     UNIT         ?PR?ADC_ISRINIT?ADCDRV
            CODE    4BFAH     0004H     UNIT         ?PR?_ANG_SETCALCNT?CALIBRATION
            CODE    4BFEH     0004H     UNIT         ?PR?COMM_SENDSTOP?COMM
            CODE    4C02H     0004H     UNIT         ?PR?GET_MCUTEMP?SENSOR
            CODE    4C06H     0003H     UNIT         ?PR?RAM_CALDATAINIT?FLASH



OVERLAY MAP OF MODULE:   .\obj\WTAL (?C_STARTUP)


BL51 BANKED LINKER/LOCATER V6.22                                                      06/25/2018  15:28:32  PAGE 7


SEGMENT                                        BIT_GROUP          DATA_GROUP          XDATA_GROUP
  +--> CALLED SEGMENT                       START    LENGTH     START    LENGTH     START    LENGTH
---------------------------------------------------------------------------------------------------
?C_C51STARTUP                               -----    -----      -----    -----      -----    -----
  +--> ?PR?MAIN?MAIN
  +--> ?C_INITSEG

?PR?MAIN?MAIN                               -----    -----      -----    -----      -----    -----
  +--> ?PR?INIT_ALL?INIT
  +--> ?PR?FLASH_CALDATAINIT?FLASH
  +--> ?PR?_DELAY_MS?DELAY
  +--> ?PR?SNPROC?SENSOR
  +--> ?PR?TIMER2_TASKINMAIN?TIMER
  +--> ?PR?SEND_TIMEPROC?SEND

?PR?INIT_ALL?INIT                           -----    -----      -----    -----      -----    -----
  +--> ?PR?SYS_PORTINIT?INIT
  +--> ?PR?SYS_CLKINIT?INIT
  +--> ?PR?COMM_HARDWAREINIT?COMM
  +--> ?PR?COMM_SOFTWAREINIT?COMM
  +--> ?PR?TIMER2_INIT?TIMER
  +--> ?PR?INIT_SYSTEMPARA?INIT
  +--> ?PR?ANGINIT?ANGAPP
  +--> ?PR?ADC_INIT?ADCDRV
  +--> ?PR?ADC_ENABLE?ADCDRV

?PR?TIMER2_INIT?TIMER                       -----    -----      -----    -----      -----    -----
  +--> ?PR?TIMER

?PR?TIMER                                   -----    -----      -----    -----      -----    -----
  +--> ?CO?SEND

?PR?INIT_SYSTEMPARA?INIT                    -----    -----      -----    -----      -----    -----
  +--> ?CO?SEND

?PR?ANGINIT?ANGAPP                          -----    -----      -----    -----      -----    -----
  +--> ?PR?SNINIT?SENSOR
  +--> ?PR?ANGAPP
  +--> ?PR?_SETANGXINST?ANGAPP
  +--> ?PR?_SETANGYINST?ANGAPP
  +--> ?PR?_SETANGXSYSZERO?ANGAPP
  +--> ?PR?_SETANGYSYSZERO?ANGAPP
  +--> ?PR?_SETANGXUSRZERO?ANGAPP
  +--> ?PR?_SETANGYUSRZERO?ANGAPP

?PR?SNINIT?SENSOR                           -----    -----      -----    -----      -----    -----
  +--> ?PR?CALIBINIT?CALIBRATION
  +--> ?PR?_SETFILTERCNT?SENSOR
  +--> ?PR?SNXDATAINIT?SENSOR
  +--> ?PR?_SNXFILTER?SENSOR
  +--> ?PR?ANGXCALC?SENSOR
  +--> ?PR?SNYDATAINIT?SENSOR
  +--> ?PR?_SNYFILTER?SENSOR
  +--> ?PR?ANGYCALC?SENSOR

?PR?CALIBINIT?CALIBRATION                   -----    -----      -----    -----      -----    -----
  +--> ?PR?_SETANGXCALCNT?CALIBRATION
BL51 BANKED LINKER/LOCATER V6.22                                                      06/25/2018  15:28:32  PAGE 8


  +--> ?PR?_GETANGXCALANGVAL?CALIBRATION
  +--> ?PR?_GETANGXCALADCVAL?CALIBRATION
  +--> ?PR?_SETANGXCALANGVAL?CALIBRATION
  +--> ?PR?_SETANGXCALADCVAL?CALIBRATION
  +--> ?PR?_SETANGYCALCNT?CALIBRATION
  +--> ?PR?_GETANGYCALANGVAL?CALIBRATION
  +--> ?PR?_GETANGYCALADCVAL?CALIBRATION
  +--> ?PR?_SETANGYCALANGVAL?CALIBRATION
  +--> ?PR?_SETANGYCALADCVAL?CALIBRATION

?PR?_SETANGXCALCNT?CALIBRATION              -----    -----      -----    -----      -----    -----
  +--> ?PR?CALIBRATION
  +--> ?PR?_ANG_SETCALCNT?CALIBRATION

?PR?_GETANGXCALANGVAL?CALIBRATION           -----    -----      -----    -----      -----    -----
  +--> ?PR?CALIBRATION
  +--> ?PR?_ANG_RDANGVAL?CALIBRATION

?PR?_ANG_RDANGVAL?CALIBRATION               -----    -----      -----    -----      -----    -----
  +--> ?PR?CALIBRATION

?PR?_GETANGXCALADCVAL?CALIBRATION           -----    -----      -----    -----      -----    -----
  +--> ?PR?CALIBRATION
  +--> ?PR?_ANG_RDADCVAL?CALIBRATION

?PR?_ANG_RDADCVAL?CALIBRATION               -----    -----      -----    -----      -----    -----
  +--> ?PR?CALIBRATION

?PR?_SETANGXCALANGVAL?CALIBRATION           -----    -----      0039H    0005H      -----    -----
  +--> ?PR?CALIBRATION
  +--> ?PR?_ANG_WRANGVAL?CALIBRATION

?PR?_ANG_WRANGVAL?CALIBRATION               -----    -----      003EH    0008H      -----    -----

?PR?_SETANGXCALADCVAL?CALIBRATION           -----    -----      -----    -----      -----    -----
  +--> ?PR?CALIBRATION
  +--> ?PR?_ANG_WRADCVAL?CALIBRATION

?PR?_ANG_WRADCVAL?CALIBRATION               -----    -----      0039H    0006H      -----    -----

?PR?_SETANGYCALCNT?CALIBRATION              -----    -----      -----    -----      -----    -----
  +--> ?PR?CALIBRATION
  +--> ?PR?_ANG_SETCALCNT?CALIBRATION

?PR?_GETANGYCALANGVAL?CALIBRATION           -----    -----      -----    -----      -----    -----
  +--> ?PR?CALIBRATION
  +--> ?PR?_ANG_RDANGVAL?CALIBRATION

?PR?_GETANGYCALADCVAL?CALIBRATION           -----    -----      -----    -----      -----    -----
  +--> ?PR?CALIBRATION
  +--> ?PR?_ANG_RDADCVAL?CALIBRATION

?PR?_SETANGYCALANGVAL?CALIBRATION           -----    -----      0039H    0005H      -----    -----
  +--> ?PR?CALIBRATION
  +--> ?PR?_ANG_WRANGVAL?CALIBRATION

?PR?_SETANGYCALADCVAL?CALIBRATION           -----    -----      -----    -----      -----    -----
BL51 BANKED LINKER/LOCATER V6.22                                                      06/25/2018  15:28:32  PAGE 9


  +--> ?PR?CALIBRATION
  +--> ?PR?_ANG_WRADCVAL?CALIBRATION

?PR?SNXDATAINIT?SENSOR                      -----    -----      -----    -----      -----    -----
  +--> ?PR?SENSOR
  +--> ?PR?_SN_DATAINIT?SENSOR

?PR?_SN_DATAINIT?SENSOR                     -----    -----      0021H    0006H      -----    -----

?PR?_SNXFILTER?SENSOR                       -----    -----      -----    -----      -----    -----
  +--> ?PR?SENSOR
  +--> ?PR?_SNFILTER?SENSOR

?PR?_SNFILTER?SENSOR                        -----    -----      0021H    0006H      -----    -----
  +--> ?PR?_VALINRANGE?FILTER
  +--> ?PR?SENSOR
  +--> ?PR?_FILTER_1ST?FILTER

?PR?_FILTER_1ST?FILTER                      -----    -----      0027H    0007H      -----    -----

?PR?ANGXCALC?SENSOR                         -----    -----      -----    -----      -----    -----
  +--> ?PR?SENSOR
  +--> ?PR?_ANG_CALC?SENSOR

?PR?_ANG_CALC?SENSOR                        -----    -----      0021H    0007H      -----    -----
  +--> ?PR?_GETANGCALCVAL?SENSOR
  +--> ?PR?SENSOR
  +--> ?PR?ASIN?ASIN

?PR?_GETANGCALCVAL?SENSOR                   -----    -----      0028H    0006H      -----    -----
  +--> ?PR?SENSOR

?PR?ASIN?ASIN                               -----    -----      -----    -----      -----    -----
  +--> ?PR?SQRT?SQRT
  +--> ?PR?ATAN?ATAN

?PR?SQRT?SQRT                               -----    -----      004AH    0004H      -----    -----

?PR?ATAN?ATAN                               0020H.2  0000H.2    004AH    0004H      -----    -----

?PR?SNYDATAINIT?SENSOR                      -----    -----      -----    -----      -----    -----
  +--> ?PR?SENSOR
  +--> ?PR?_SN_DATAINIT?SENSOR

?PR?_SNYFILTER?SENSOR                       -----    -----      -----    -----      -----    -----
  +--> ?PR?SENSOR
  +--> ?PR?_SNFILTER?SENSOR

?PR?ANGYCALC?SENSOR                         -----    -----      -----    -----      -----    -----
  +--> ?PR?SENSOR
  +--> ?PR?_ANG_CALC?SENSOR

?PR?ADC_INIT?ADCDRV                         -----    -----      -----    -----      -----    -----
  +--> ?PR?ADC_SETINIT?ADCDRV
  +--> ?PR?ADC_VREFINIT?ADCDRV
  +--> ?PR?ADC_ISRINIT?ADCDRV
  +--> ?PR?ADCENTITYINIT?ADCDRV
BL51 BANKED LINKER/LOCATER V6.22                                                      06/25/2018  15:28:32  PAGE 10



?PR?FLASH_CALDATAINIT?FLASH                 -----    -----      0021H    0001H      -----    -----
  +--> ?PR?FLASH
  +--> ?PR?RAM_CALDATAINIT?FLASH
  +--> ?PR?FLASH_CALDATAUPDATE?FLASH
  +--> ?PR?_RAM_BUF2CALDATA?FLASH
  +--> ?PR?_FLASH_CHECKSUM?FLASH
  +--> ?PR?FLASHAREA_USER?FLASH
  +--> ?PR?_FLASH_BUFRD?FLASH
  +--> ?PR?FLASHCHK?FLASH
  +--> ?PR?_FLASH_CALDATAUPDATE_USER?FLASH
  +--> ?PR?GETANGXCALCNT?CALIBRATION
  +--> ?PR?GETANGYCALCNT?CALIBRATION
  +--> ?PR?ADC_XCALSTOP?CMDSUB
  +--> ?PR?ADC_YCALSTOP?CMDSUB
  +--> ?CO?SEND

?PR?RAM_CALDATAINIT?FLASH                   -----    -----      -----    -----      -----    -----
  +--> ?PR?ANGCALDATAINIT?CALIBRATION

?PR?ANGCALDATAINIT?CALIBRATION              -----    -----      -----    -----      -----    -----
  +--> ?PR?_SETANGCALCNT?CALIBRATION
  +--> ?PR?CALIBRATION

?PR?_SETANGCALCNT?CALIBRATION               -----    -----      -----    -----      -----    -----
  +--> ?PR?_SETANGXCALCNT?CALIBRATION
  +--> ?PR?_SETANGYCALCNT?CALIBRATION

?PR?FLASH_CALDATAUPDATE?FLASH               -----    -----      -----    -----      -----    -----
  +--> ?PR?_FLASHUPDATE?FLASH
  +--> ?PR?_RAM_CALDATA2BUF?FLASH

?PR?_FLASHUPDATE?FLASH                      0020H.2  0000H.1    0042H    0007H      -----    -----
  +--> ?PR?_FLASH_PAGEERASE?FLASH
  +--> ?PR?_DELAY_MS?DELAY
  +--> ?PR?_FLASH_BUFWR?FLASH

?PR?_FLASH_PAGEERASE?FLASH                  0020H.3  0000H.1    -----    -----      -----    -----
  +--> ?PR?FLASH

?PR?_DELAY_MS?DELAY                         -----    -----      -----    -----      -----    -----
  +--> ?PR?DELAY_MS_?DELAY

?PR?DELAY_MS_?DELAY                         -----    -----      -----    -----      -----    -----
  +--> ?PR?DELAY_100US?DELAY

?PR?_FLASH_BUFWR?FLASH                      0020H.3  0000H.1    0049H    000BH      -----    -----
  +--> ?PR?FLASH

?PR?_RAM_CALDATA2BUF?FLASH                  -----    -----      0042H    0006H      -----    -----
  +--> ?PR?_GETANGXCALANGVAL?CALIBRATION
  +--> ?PR?FLASH
  +--> ?PR?_GETANGYCALANGVAL?CALIBRATION
  +--> ?PR?_GETANGXCALADCVAL?CALIBRATION
  +--> ?PR?_GETANGYCALADCVAL?CALIBRATION
  +--> ?PR?GETANGXCALCNT?CALIBRATION
  +--> ?PR?GETANGXSYSZERO?ANGAPP
BL51 BANKED LINKER/LOCATER V6.22                                                      06/25/2018  15:28:32  PAGE 11


  +--> ?PR?GETANGYSYSZERO?ANGAPP
  +--> ?PR?GETFILTERCNT?SENSOR
  +--> ?PR?GETANGXUSRZERO?ANGAPP
  +--> ?PR?GETANGYUSRZERO?ANGAPP
  +--> ?PR?GETANGXINST?ANGAPP
  +--> ?PR?GETANGYINST?ANGAPP
  +--> ?PR?_FLASH_CHECKSUM?FLASH

?PR?_FLASH_CHECKSUM?FLASH                   -----    -----      0048H    0005H      -----    -----
  +--> ?PR?FLASH

?PR?_RAM_BUF2CALDATA?FLASH                  -----    -----      0022H    0004H      -----    -----
  +--> ?PR?FLASH
  +--> ?PR?_SETANGXCALANGVAL?CALIBRATION
  +--> ?PR?_SETANGYCALANGVAL?CALIBRATION
  +--> ?PR?_SETANGXCALADCVAL?CALIBRATION
  +--> ?PR?_SETANGYCALADCVAL?CALIBRATION
  +--> ?PR?_SETANGCALCNT?CALIBRATION
  +--> ?PR?_SETFILTERCNT?SENSOR
  +--> ?PR?_SETANGXUSRZERO?ANGAPP
  +--> ?PR?_SETANGYUSRZERO?ANGAPP
  +--> ?PR?_SETANGXINST?ANGAPP
  +--> ?PR?_SETANGYINST?ANGAPP

?PR?FLASHAREA_USER?FLASH                    -----    -----      -----    -----      -----    -----
  +--> ?PR?FLASH
  +--> ?PR?_FLASH_BUFRD?FLASH
  +--> ?PR?FLASHCHK?FLASH
  +--> ?PR?_FLASH_CHECKSUM?FLASH
  +--> ?PR?RAM_CALDATAINIT_USER?FLASH
  +--> ?PR?_FLASH_CALDATAUPDATE_USER?FLASH
  +--> ?PR?_RAM_BUF2CALDATA?FLASH

?PR?_FLASH_BUFRD?FLASH                      0020H.2  0000H.1    0022H    0009H      -----    -----
  +--> ?PR?FLASH

?PR?RAM_CALDATAINIT_USER?FLASH              -----    -----      -----    -----      -----    -----
  +--> ?PR?_SETANGXUSRZERO?ANGAPP
  +--> ?PR?_SETANGYUSRZERO?ANGAPP
  +--> ?PR?INIT_SYSTEMPARA?INIT

?PR?_FLASH_CALDATAUPDATE_USER?FLASH         -----    -----      0039H    0009H      -----    -----
  +--> ?PR?_RAM_CALDATA2BUF?FLASH
  +--> ?PR?_FLASHUPDATE?FLASH

?PR?ADC_XCALSTOP?CMDSUB                     -----    -----      002BH    0001H      -----    -----
  +--> ?PR?CMDSUB
  +--> ?PR?_SUB_BUFBUBBLE?SUB
  +--> ?PR?ANGXCALCPRM?CALIBRATION

?PR?_SUB_BUFBUBBLE?SUB                      -----    -----      002CH    0009H      -----    -----
  +--> ?PR?SUB
  +--> ?PR?_SUB_SBUFSWITCH?SUB
  +--> ?PR?_SUB_UBUFSWITCH?SUB

?PR?_SUB_SBUFSWITCH?SUB                     -----    -----      0035H    0009H      -----    -----
  +--> ?PR?SUB
BL51 BANKED LINKER/LOCATER V6.22                                                      06/25/2018  15:28:32  PAGE 12



?PR?_SUB_UBUFSWITCH?SUB                     -----    -----      0035H    0007H      -----    -----
  +--> ?PR?SUB

?PR?ANGXCALCPRM?CALIBRATION                 -----    -----      -----    -----      -----    -----
  +--> ?PR?CALIBRATION
  +--> ?PR?_ANG_CALCPRM?CALIBRATION

?PR?_ANG_CALCPRM?CALIBRATION                -----    -----      002CH    000CH      -----    -----
  +--> ?PR?CALIBRATION
  +--> ?PR?SIN?SIN

?PR?SIN?SIN                                 0020H.2  0000H.1    004AH    0004H      -----    -----

?PR?ADC_YCALSTOP?CMDSUB                     -----    -----      002BH    0001H      -----    -----
  +--> ?PR?CMDSUB
  +--> ?PR?_SUB_BUFBUBBLE?SUB
  +--> ?PR?ANGYCALCPRM?CALIBRATION

?PR?ANGYCALCPRM?CALIBRATION                 -----    -----      -----    -----      -----    -----
  +--> ?PR?CALIBRATION
  +--> ?PR?_ANG_CALCPRM?CALIBRATION

?PR?SNPROC?SENSOR                           -----    -----      -----    -----      -----    -----
  +--> ?PR?ADC_GETXVAL?ADCDRV
  +--> ?PR?SENSOR
  +--> ?PR?ADC_GETYVAL?ADCDRV

?PR?TIMER2_TASKINMAIN?TIMER                 -----    -----      -----    -----      -----    -----
  +--> ?PR?SUB_SENDANGXY?SUB

?PR?SUB_SENDANGXY?SUB                       -----    -----      -----    -----      -----    -----
  +--> ?CO?SUB
  +--> ?PR?_COMM_PUTSTR?COMM
  +--> ?PR?GETXANGALLSETVAL?ANGAPP
  +--> ?PR?_COMM_PUTINT32S?SUB
  +--> ?PR?GETYANGALLSETVAL?ANGAPP
  +--> ?PR?COMM_PUTNEWLINE?SUB
  +--> ?PR?COMM_SENDSTA?COMM

?PR?_COMM_PUTSTR?COMM                       -----    -----      0035H    0003H      -----    -----
  +--> ?PR?_COMM_PUTCHAR?COMM

?PR?GETXANGALLSETVAL?ANGAPP                 -----    -----      003AH    0004H      -----    -----
  +--> ?PR?GETXANG?SENSOR
  +--> ?PR?_SETANGZEROADD?ANGAPP
  +--> ?PR?_SETANGZERO?ANGAPP

?PR?_SETANGZEROADD?ANGAPP                   -----    -----      003EH    0004H      -----    -----

?PR?_SETANGZERO?ANGAPP                      -----    -----      003EH    0004H      -----    -----

?PR?_COMM_PUTINT32S?SUB                     -----    -----      -----    -----      -----    -----
  +--> ?PR?SUB
  +--> ?PR?_SUB_INT32S2STR?SUB
  +--> ?PR?_COMM_PUTSTR?COMM

BL51 BANKED LINKER/LOCATER V6.22                                                      06/25/2018  15:28:32  PAGE 13


?PR?_SUB_INT32S2STR?SUB                     -----    -----      002BH    0007H      -----    -----
  +--> ?PR?SUB

?PR?GETYANGALLSETVAL?ANGAPP                 -----    -----      003AH    0004H      -----    -----
  +--> ?PR?GETYANG?SENSOR
  +--> ?PR?_SETANGZEROADD?ANGAPP
  +--> ?PR?_SETANGZERO?ANGAPP

?PR?COMM_PUTNEWLINE?SUB                     -----    -----      -----    -----      -----    -----
  +--> ?PR?_COMM_PUTCHAR?COMM

?PR?SEND_TIMEPROC?SEND                      -----    -----      -----    -----      -----    -----
  +--> ?PR?_COMM_GETCHAR?COMM
  +--> ?PR?SEND
  +--> ?PR?_MODRTU_RXPROC?MODBUSRTU
  +--> ?PR?_SEND_RDEAL?SEND
  +--> ?PR?_SEND_CDEAL?SEND
  +--> ?PR?_SEND_SDEAL?SEND
  +--> ?PR?_SEND_UDEAL?SEND
  +--> ?PR?_SEND_WDEAL?SEND

?PR?_COMM_GETCHAR?COMM                      -----    -----      -----    -----      -----    -----
  +--> ?PR?COMM

?PR?_MODRTU_RXPROC?MODBUSRTU                -----    -----      0021H    0004H      -----    -----
  +--> ?PR?_MODRTU_CHKCRC?MODBUSRTU
  +--> ?PR?MODBUSRTU
  +--> ?PR?_MODRTU_RDREG?MODBUSRTU
  +--> ?PR?_MODRTU_WRREG?MODBUSRTU
  +--> ?PR?_MODRTU_RLYERROR?MODBUSRTU

?PR?_MODRTU_CHKCRC?MODBUSRTU                -----    -----      -----    -----      -----    -----
  +--> ?PR?_MODBUSCRCCNT?MODBUSCRC

?PR?_MODBUSCRCCNT?MODBUSCRC                 -----    -----      0035H    0003H      -----    -----
  +--> ?CO?MODBUSCRC

?PR?_MODRTU_RDREG?MODBUSRTU                 -----    -----      0025H    000DH      -----    -----
  +--> ?PR?_MODRTU_8TO16?MODBUSRTU
  +--> ?PR?_MODRTU_RDVAL?MODBUSRTU
  +--> ?PR?MODBUSRTU
  +--> ?PR?_MODRTU_RLYERROR?MODBUSRTU
  +--> ?PR?_MODBUSCRCCNT?MODBUSCRC
  +--> ?PR?_MODRTU_WRCRC?MODBUSRTU
  +--> ?PR?_COMM_PUTSTR?COMM
  +--> ?PR?COMM_SENDSTA?COMM

?PR?_MODRTU_8TO16?MODBUSRTU                 -----    -----      -----    -----      -----    -----
  +--> ?PR?MODBUSRTU

?PR?_MODRTU_RDVAL?MODBUSRTU                 -----    -----      0032H    0008H      095BH    0004H
  +--> ?PR?GETXANGALLSETVAL?ANGAPP
  +--> ?PR?GETYANGALLSETVAL?ANGAPP
  +--> ?PR?GETANGP?ANGAPP
  +--> ?PR?GETANGXINST?ANGAPP
  +--> ?PR?GETANGYINST?ANGAPP
  +--> ?PR?MODBUSRTU
BL51 BANKED LINKER/LOCATER V6.22                                                      06/25/2018  15:28:32  PAGE 14


  +--> ?PR?GET_MCUTEMP?SENSOR
  +--> ?PR?GETXFTVAL?SENSOR
  +--> ?PR?_GETANGXCALADCVAL?CALIBRATION
  +--> ?PR?_GETANGYCALADCVAL?CALIBRATION
  +--> ?PR?GETYFTVAL?SENSOR
  +--> ?PR?GETXANG?SENSOR
  +--> ?PR?GETYANG?SENSOR
  +--> ?PR?GETANGXRELSYS?ANGAPP
  +--> ?PR?GETANGYRELSYS?ANGAPP
  +--> ?PR?GETANGXZEROUSR?ANGAPP
  +--> ?PR?GETANGYZEROUSR?ANGAPP
  +--> ?PR?GETANGXSYSZERO?ANGAPP
  +--> ?PR?GETANGYSYSZERO?ANGAPP
  +--> ?PR?GETANGXUSRZERO?ANGAPP
  +--> ?PR?GETANGYUSRZERO?ANGAPP
  +--> ?PR?_FLOATTOINT?MODBUSRTU
  +--> ?PR?GETFILTERCNT?SENSOR
  +--> ?PR?_MODRTU_RD16U?MODBUSRTU
  +--> ?PR?_GETANGXCALANGVAL?CALIBRATION
  +--> ?PR?_GETANGYCALANGVAL?CALIBRATION

?PR?GETANGP?ANGAPP                          -----    -----      -----    -----      -----    -----
  +--> ?PR?GETXANGALLSETVAL?ANGAPP
  +--> ?PR?GETYANGALLSETVAL?ANGAPP
  +--> ?PR?_PANGCALC?ANGAPP

?PR?_PANGCALC?ANGAPP                        -----    -----      003AH    0010H      -----    -----
  +--> ?PR?ANGAPP
  +--> ?PR?SIN?SIN
  +--> ?PR?SQRT?SQRT
  +--> ?PR?ASIN?ASIN

?PR?GET_MCUTEMP?SENSOR                      -----    -----      -----    -----      -----    -----
  +--> ?PR?ADC_GETTEMP?ADCDRV

?PR?_FLOATTOINT?MODBUSRTU                   -----    -----      003AH    000CH      -----    -----
  +--> ?PR?MODBUSRTU

?PR?_MODRTU_RLYERROR?MODBUSRTU              -----    -----      0032H    0003H      -----    -----
  +--> ?PR?MODBUSRTU
  +--> ?PR?_MODBUSCRCCNT?MODBUSCRC
  +--> ?PR?_COMM_PUTSTR?COMM
  +--> ?PR?COMM_SENDSTA?COMM

?PR?_MODRTU_WRREG?MODBUSRTU                 -----    -----      0025H    000CH      -----    -----
  +--> ?PR?_MODRTU_8TO16?MODBUSRTU
  +--> ?PR?MODBUSRTU
  +--> ?PR?_MODRTU_WRVAL?MODBUSRTU
  +--> ?PR?_MODRTU_RLYERROR?MODBUSRTU
  +--> ?PR?_MODBUSCRCCNT?MODBUSCRC
  +--> ?PR?_MODRTU_WRCRC?MODBUSRTU
  +--> ?PR?_COMM_PUTSTR?COMM
  +--> ?PR?COMM_SENDSTA?COMM
  +--> ?PR?FLASH_USERDATAUPDATE?FLASH

?PR?_MODRTU_WRVAL?MODBUSRTU                 -----    -----      0031H    0008H      095BH    0008H
  +--> ?PR?MODBUSRTU
BL51 BANKED LINKER/LOCATER V6.22                                                      06/25/2018  15:28:32  PAGE 15


  +--> ?PR?_MODRTU_WR16U?MODBUSRTU
  +--> ?PR?_SETANGXINST?ANGAPP
  +--> ?PR?_SETANGYINST?ANGAPP
  +--> ?PR?_MODRTU_SETZERO?MODBUSRTU
  +--> ?PR?_MODRTU_WRADDR?MODBUSRTU
  +--> ?PR?_MODRTU_WRBAUD?MODBUSRTU
  +--> ?PR?GETANGXRELSYS?ANGAPP
  +--> ?PR?_SETANGXUSRZERO?ANGAPP
  +--> ?PR?FLASH_USERDATAUPDATE?FLASH
  +--> ?PR?_SETANGCALCNT?CALIBRATION
  +--> ?PR?GETANGXCALCNT?CALIBRATION
  +--> ?PR?_SETANGXCALANGVAL?CALIBRATION
  +--> ?PR?GETXFTVAL?SENSOR
  +--> ?PR?_SETANGXCALADCVAL?CALIBRATION
  +--> ?PR?_SETANGYCALANGVAL?CALIBRATION
  +--> ?PR?GETYFTVAL?SENSOR
  +--> ?PR?_SETANGYCALADCVAL?CALIBRATION
  +--> ?PR?FLASH_CALDATAUPDATE?FLASH
  +--> ?PR?GETXANG?SENSOR
  +--> ?PR?_SETANGXSYSZERO?ANGAPP
  +--> ?PR?GETYANG?SENSOR
  +--> ?PR?_SETANGYSYSZERO?ANGAPP
  +--> ?PR?GETANGYRELSYS?ANGAPP
  +--> ?PR?_SETANGYUSRZERO?ANGAPP
  +--> ?PR?_SETFILTERCNT?SENSOR

?PR?_MODRTU_WR16U?MODBUSRTU                 -----    -----      -----    -----      -----    -----
  +--> ?PR?MODBUSRTU

?PR?_MODRTU_SETZERO?MODBUSRTU               -----    -----      0039H    0002H      -----    -----
  +--> ?PR?_MODRTU_8TO16?MODBUSRTU
  +--> ?PR?GETANGXRELSYS?ANGAPP
  +--> ?PR?_SETANGXUSRZERO?ANGAPP
  +--> ?PR?GETANGYRELSYS?ANGAPP
  +--> ?PR?MODBUSRTU
  +--> ?PR?_SETANGYUSRZERO?ANGAPP

?PR?_MODRTU_WRADDR?MODBUSRTU                -----    -----      -----    -----      -----    -----
  +--> ?PR?MODBUSRTU

?PR?_MODRTU_WRBAUD?MODBUSRTU                -----    -----      -----    -----      -----    -----
  +--> ?PR?MODBUSRTU

?PR?FLASH_USERDATAUPDATE?FLASH              -----    -----      -----    -----      -----    -----
  +--> ?PR?FLASH
  +--> ?PR?_FLASH_CALDATAUPDATE_USER?FLASH

?PR?_SEND_RDEAL?SEND                        -----    -----      0021H    0005H      -----    -----
  +--> ?CO?SEND
  +--> ?PR?SEND
  +--> ?PR?_STRNCMP?STRNCMP
  +--> ?PR?SUB_SENDPRMTALL?SUB
  +--> ?PR?SUB_SENDANGXYP?SUB
  +--> ?PR?SUB_SENDANGXY?SUB
  +--> ?PR?SUB_SENDSOFTVER?SUB
  +--> ?PR?SUB_SENDSYSNUM?SUB
  +--> ?PR?SUB_SENDID?SUB
BL51 BANKED LINKER/LOCATER V6.22                                                      06/25/2018  15:28:32  PAGE 16


  +--> ?PR?_COMM_PUTSTR?COMM
  +--> ?PR?GETANGXINST?ANGAPP
  +--> ?PR?GETANGYINST?ANGAPP
  +--> ?PR?_SUB_SENDOFFSET?SUB
  +--> ?PR?_SUB_SENDANGXCAL?SUB
  +--> ?PR?_SUB_SENDANGYCAL?SUB
  +--> ?PR?SUB_SENDERR?SUB
  +--> ?PR?_SUB_STR2INT8U?SUB

?PR?_STRNCMP?STRNCMP                        -----    -----      002BH    0008H      -----    -----

?PR?SUB_SENDPRMTALL?SUB                     -----    -----      -----    -----      -----    -----
  +--> ?CO?SUB
  +--> ?PR?_COMM_PUTSTR?COMM
  +--> ?PR?GET_MCUTEMP?SENSOR
  +--> ?PR?_COMM_PUTINT16U?SUB
  +--> ?PR?GETXFTVAL?SENSOR
  +--> ?PR?_COMM_PUTCHAR?COMM
  +--> ?PR?GETXANG?SENSOR
  +--> ?PR?_COMM_PUTINT32S?SUB
  +--> ?PR?GETYFTVAL?SENSOR
  +--> ?PR?GETYANG?SENSOR
  +--> ?PR?COMM_PUTNEWLINE?SUB
  +--> ?PR?COMM_SENDSTA?COMM

?PR?_COMM_PUTINT16U?SUB                     -----    -----      -----    -----      -----    -----
  +--> ?PR?SUB
  +--> ?PR?_SUB_INT16U2STR?SUB
  +--> ?PR?_COMM_PUTSTR?COMM

?PR?_SUB_INT16U2STR?SUB                     -----    -----      002BH    0005H      -----    -----
  +--> ?PR?SUB

?PR?SUB_SENDANGXYP?SUB                      -----    -----      -----    -----      -----    -----
  +--> ?CO?SUB
  +--> ?PR?_COMM_PUTSTR?COMM
  +--> ?PR?GETXANGALLSETVAL?ANGAPP
  +--> ?PR?_COMM_PUTINT32S?SUB
  +--> ?PR?GETYANGALLSETVAL?ANGAPP
  +--> ?PR?GETANGP?ANGAPP
  +--> ?PR?COMM_PUTNEWLINE?SUB
  +--> ?PR?COMM_SENDSTA?COMM

?PR?SUB_SENDSOFTVER?SUB                     -----    -----      -----    -----      -----    -----
  +--> ?CO?SUB
  +--> ?PR?_COMM_PUTSTR?COMM
  +--> ?PR?COMM_PUTNEWLINE?SUB
  +--> ?PR?COMM_SENDSTA?COMM

?PR?SUB_SENDSYSNUM?SUB                      -----    -----      -----    -----      -----    -----
  +--> ?CO?SUB
  +--> ?PR?_COMM_PUTSTR?COMM
  +--> ?PR?COMM_PUTNEWLINE?SUB
  +--> ?PR?COMM_SENDSTA?COMM

?PR?SUB_SENDID?SUB                          -----    -----      -----    -----      -----    -----
  +--> ?PR?GETANGXCALCNT?CALIBRATION
BL51 BANKED LINKER/LOCATER V6.22                                                      06/25/2018  15:28:32  PAGE 17


  +--> ?PR?COMM_PUTNEWLINE?SUB
  +--> ?PR?COMM_SENDSTA?COMM
  +--> ?PR?_COMM_PUTINT16U?SUB
  +--> ?PR?_COMM_PUTCHAR?COMM

?PR?_SUB_SENDOFFSET?SUB                     -----    -----      -----    -----      -----    -----
  +--> ?PR?_COMM_PUTINT32S?SUB
  +--> ?PR?COMM_PUTNEWLINE?SUB
  +--> ?PR?COMM_SENDSTA?COMM

?PR?_SUB_SENDANGXCAL?SUB                    -----    -----      0026H    0001H      -----    -----
  +--> ?CO?SUB
  +--> ?PR?_COMM_PUTSTR?COMM
  +--> ?PR?_COMM_PUTINT8U?SUB
  +--> ?PR?_GETANGXCALADCVAL?CALIBRATION
  +--> ?PR?_COMM_PUTINT16U?SUB
  +--> ?PR?SUB
  +--> ?PR?_COMM_PUTINT16S?SUB
  +--> ?PR?COMM_PUTNEWLINE?SUB
  +--> ?PR?COMM_SENDSTA?COMM

?PR?_COMM_PUTINT8U?SUB                      -----    -----      -----    -----      -----    -----
  +--> ?PR?SUB
  +--> ?PR?_SUB_INT8U2STR?SUB
  +--> ?PR?_COMM_PUTSTR?COMM

?PR?_COMM_PUTINT16S?SUB                     -----    -----      -----    -----      -----    -----
  +--> ?PR?SUB
  +--> ?PR?_SUB_INT16S2STR?SUB
  +--> ?PR?_COMM_PUTSTR?COMM

?PR?_SUB_INT16S2STR?SUB                     -----    -----      -----    -----      -----    -----
  +--> ?PR?_SUB_INT16U2STR?SUB

?PR?_SUB_SENDANGYCAL?SUB                    -----    -----      0026H    0001H      -----    -----
  +--> ?CO?SUB
  +--> ?PR?_COMM_PUTSTR?COMM
  +--> ?PR?_COMM_PUTINT8U?SUB
  +--> ?PR?_COMM_PUTCHAR?COMM
  +--> ?PR?_GETANGYCALADCVAL?CALIBRATION
  +--> ?PR?_COMM_PUTINT16U?SUB
  +--> ?PR?SUB
  +--> ?PR?_COMM_PUTINT16S?SUB
  +--> ?PR?COMM_PUTNEWLINE?SUB
  +--> ?PR?COMM_SENDSTA?COMM

?PR?SUB_SENDERR?SUB                         -----    -----      -----    -----      -----    -----
  +--> ?CO?SUB
  +--> ?PR?_COMM_PUTSTR?COMM
  +--> ?PR?COMM_PUTNEWLINE?SUB
  +--> ?PR?COMM_SENDSTA?COMM

?PR?_SUB_STR2INT8U?SUB                      -----    -----      -----    -----      -----    -----
  +--> ?PR?SUB

?PR?_SEND_CDEAL?SEND                        -----    -----      0021H    0004H      -----    -----
  +--> ?CO?SEND
BL51 BANKED LINKER/LOCATER V6.22                                                      06/25/2018  15:28:32  PAGE 18


  +--> ?PR?_STRNCMP?STRNCMP
  +--> ?PR?SUB_SENDERR?SUB
  +--> ?PR?SEND
  +--> ?PR?_SETANGYSYSZERO?ANGAPP
  +--> ?PR?_COMM_PUTSTR?COMM
  +--> ?PR?SUB_SENDOK?SUB
  +--> ?PR?_SETANGXUSRZERO?ANGAPP
  +--> ?PR?ADC_XCALSTA?CMDSUB
  +--> ?PR?ADC_XCALSTOP?CMDSUB
  +--> ?PR?ADC_YCALSTA?CMDSUB
  +--> ?PR?ADC_YCALSTOP?CMDSUB
  +--> ?PR?_SETANGYUSRZERO?ANGAPP
  +--> ?PR?_SETANGXSYSZERO?ANGAPP

?PR?SUB_SENDOK?SUB                          -----    -----      -----    -----      -----    -----
  +--> ?CO?SUB
  +--> ?PR?_COMM_PUTSTR?COMM
  +--> ?PR?COMM_PUTNEWLINE?SUB
  +--> ?PR?COMM_SENDSTA?COMM

?PR?_SEND_SDEAL?SEND                        -----    -----      0021H    000AH      -----    -----
  +--> ?CO?SEND
  +--> ?PR?_STRNCMP?STRNCMP
  +--> ?PR?SEND
  +--> ?PR?_COMM_PUTSTR?COMM
  +--> ?PR?SUB_SENDOK?SUB
  +--> ?PR?SUB_SENDERR?SUB
  +--> ?PR?SUB_SENDANGXY?SUB
  +--> ?PR?_SUB_STR2INT8U?SUB
  +--> ?PR?_SETFILTERCNT?SENSOR
  +--> ?PR?GETXANG?SENSOR
  +--> ?PR?_SETANGXSYSZERO?ANGAPP
  +--> ?PR?GETYANG?SENSOR
  +--> ?PR?_SETANGYSYSZERO?ANGAPP
  +--> ?PR?GETANGXRELSYS?ANGAPP
  +--> ?PR?_SETANGXUSRZERO?ANGAPP
  +--> ?PR?GETANGYRELSYS?ANGAPP
  +--> ?PR?_SETANGYUSRZERO?ANGAPP
  +--> ?PR?_SETANGXINST?ANGAPP
  +--> ?PR?_SETANGYINST?ANGAPP
  +--> ?PR?_SETANGCALCNT?CALIBRATION
  +--> ?PR?GETXFTVAL?SENSOR
  +--> ?PR?_ADC_XCALPROC?CMDSUB
  +--> ?PR?_COMM_PUTINT16U?SUB
  +--> ?PR?GETANGXCALCNT?CALIBRATION
  +--> ?PR?ADC_XCALSTOP?CMDSUB
  +--> ?PR?GETYFTVAL?SENSOR
  +--> ?PR?_ADC_YCALPROC?CMDSUB
  +--> ?PR?ADC_YCALSTOP?CMDSUB
  +--> ?PR?_DELAY_MS?DELAY
  +--> ?PR?_SUB_STR2INT32S?SUB
  +--> ?PR?_COMM_PUTCHAR?COMM
  +--> ?PR?_ANGCHKDIFF?CMDSUB

?PR?_ADC_XCALPROC?CMDSUB                    -----    -----      002BH    0006H      -----    -----
  +--> ?PR?CMDSUB
  +--> ?PR?_ANGCHKDIFF?CMDSUB
BL51 BANKED LINKER/LOCATER V6.22                                                      06/25/2018  15:28:32  PAGE 19



?PR?_ANGCHKDIFF?CMDSUB                      -----    -----      0031H    000DH      095BH    0001H
  +--> ?PR?CMDSUB

?PR?_ADC_YCALPROC?CMDSUB                    -----    -----      002BH    0006H      -----    -----
  +--> ?PR?CMDSUB
  +--> ?PR?_ANGCHKDIFF?CMDSUB

?PR?_SUB_STR2INT32S?SUB                     -----    -----      002BH    000AH      -----    -----
  +--> ?PR?SUB

?PR?_SEND_UDEAL?SEND                        -----    -----      0021H    0004H      -----    -----
  +--> ?CO?SEND
  +--> ?PR?_STRNCMP?STRNCMP
  +--> ?PR?FLASH_CALDATAUPDATE?FLASH
  +--> ?PR?SEND
  +--> ?PR?FLASH_USERDATAUPDATE?FLASH
  +--> ?PR?_COMM_PUTSTR?COMM
  +--> ?PR?SUB_SENDOK?SUB
  +--> ?PR?SUB_SENDERR?SUB

?PR?_SEND_WDEAL?SEND                        -----    -----      0021H    0004H      -----    -----
  +--> ?CO?SEND
  +--> ?PR?_STRNCMP?STRNCMP
  +--> ?PR?SUB_SENDERR?SUB
  +--> ?PR?_STRNCPY?STRNCPY
  +--> ?PR?_COMM_PUTSTR?COMM
  +--> ?PR?SUB_SENDOK?SUB

?PR?_STRNCPY?STRNCPY                        -----    -----      0025H    000AH      -----    -----

*** NEW ROOT ***************************************************

?PR?ADC_ISR?ADCDRV                          -----    -----      -----    -----      -----    -----
  +--> ?PR?_ADC_SAVEANDSWITCH?ADCDRV

?PR?_ADC_SAVEANDSWITCH?ADCDRV               -----    -----      0054H    0003H      -----    -----
  +--> ?PR?ADCDRV
  +--> ?PR?_ADCFILTER?ADCDRV
  +--> ?CO?ADCDRV

?PR?ADCDRV                                  -----    -----      -----    -----      -----    -----
  +--> ?CO?ADCDRV

?PR?_ADCFILTER?ADCDRV                       -----    -----      0057H    0005H      -----    -----
  +--> ?PR?_VALINRANGE?FILTER
  +--> ?PR?_SLIDEWINFILTER?FILTER

?PR?_SLIDEWINFILTER?FILTER                  -----    -----      005CH    0012H      -----    -----

*** NEW ROOT ***************************************************

?PR?COMM_ISR?COMM                           -----    -----      006EH    0002H      -----    -----
  +--> ?PR?_COMM_GETTXCHAR?COMM
  +--> ?PR?COMM_SENDSTOP?COMM
  +--> ?PR?_COMM_PUTRXCHAR?COMM

BL51 BANKED LINKER/LOCATER V6.22                                                      06/25/2018  15:28:32  PAGE 20


?PR?_COMM_GETTXCHAR?COMM                    -----    -----      -----    -----      -----    -----
  +--> ?PR?COMM

*** NEW ROOT ***************************************************

?PR?TIMER2_ISR?TIMER                        -----    -----      -----    -----      -----    -----
  +--> ?PR?TIMER2_TASKINISR?TIMER

?PR?TIMER2_TASKINISR?TIMER                  -----    -----      -----    -----      -----    -----
  +--> ?PR?COMM_TIMERPROC?COMM
  +--> ?PR?TIMER

?PR?COMM_TIMERPROC?COMM                     -----    -----      -----    -----      -----    -----
  +--> ?PR?COMM



SYMBOL TABLE OF MODULE:  .\obj\WTAL (?C_STARTUP)

  VALUE           TYPE          NAME
  ----------------------------------

  -------         MODULE        ?C_STARTUP
  C:327AH         SEGMENT       ?C_C51STARTUP
  I:0070H         SEGMENT       ?STACK
  C:0000H         PUBLIC        ?C_STARTUP
  D:00E0H         SYMBOL        ACC
  D:00F0H         SYMBOL        B
  D:0083H         SYMBOL        DPH
  D:0082H         SYMBOL        DPL
  N:0000H         SYMBOL        IBPSTACK
  N:0100H         SYMBOL        IBPSTACKTOP
  N:0080H         SYMBOL        IDATALEN
  C:327DH         SYMBOL        IDATALOOP
  N:0000H         SYMBOL        PBPSTACK
  N:0100H         SYMBOL        PBPSTACKTOP
  N:0000H         SYMBOL        PDATALEN
  N:0000H         SYMBOL        PDATASTART
  N:0000H         SYMBOL        PPAGE
  N:0000H         SYMBOL        PPAGEENABLE
  D:00A0H         SYMBOL        PPAGE_SFR
  D:0081H         SYMBOL        SP
  C:327AH         SYMBOL        STARTUP1
  N:0000H         SYMBOL        XBPSTACK
  N:0000H         SYMBOL        XBPSTACKTOP
  N:0000H         SYMBOL        XDATALEN
  N:0000H         SYMBOL        XDATASTART
  C:0000H         LINE#         126
  C:327AH         LINE#         133
  C:327CH         LINE#         134
  C:327DH         LINE#         135
  C:327EH         LINE#         136
  C:3280H         LINE#         185
  C:3283H         LINE#         196
  -------         ENDMOD        ?C_STARTUP

  -------         MODULE        ADCDRV
BL51 BANKED LINKER/LOCATER V6.22                                                      06/25/2018  15:28:32  PAGE 21


  C:0000H         SYMBOL        _ICE_DUMMY_
  C:4A73H         PUBLIC        Adc_Init
  D:0090H         PUBLIC        P1
  D:00A0H         PUBLIC        P2
  D:00BCH         PUBLIC        ADC0CF
  D:00E6H         PUBLIC        EIE1
  C:381EH         SYMBOL        _Adc_SaveAndSwitch
  C:4AB4H         PUBLIC        Adc_GetXVal
  C:4ABDH         PUBLIC        Adc_GetYVal
  D:00E8H         PUBLIC        ADC0CN
  D:00A7H         PUBLIC        SFRPAGE
  C:4BF2H         SYMBOL        Adc_VrefInit
  C:35F5H         PUBLIC        Adc_Isr
  X:04CFH         PUBLIC        x_axis_adc
  X:0557H         PUBLIC        y_axis_adc
  D:00BBH         PUBLIC        ADC0MX
  D:00D1H         PUBLIC        REF0CN
  C:3E1DH         SYMBOL        AdcEntityInit
  B:00E8H.5       PUBLIC        AD0INT
  C:4AC6H         PUBLIC        Adc_GetTemp
  C:457FH         SYMBOL        Adc_SetInit
  I:0018H         PUBLIC        AdcSwitchId
  C:4BF6H         SYMBOL        Adc_IsrInit
  C:0026H         PUBLIC        Adc_Enable
  I:0019H         PUBLIC        AdcEndTag
  D:00BEH         PUBLIC        ADC0H
  X:05DFH         PUBLIC        temp_adc
  D:00BDH         PUBLIC        ADC0L
  I:001AH         PUBLIC        AdcEndId
  C:4849H         SYMBOL        PinIdTab
  C:3306H         SYMBOL        _AdcFilter
  D:00BDH         PUBLIC        ADC0
  C:4856H         SYMBOL        PinMuxTab
  C:4B05H         SYMBOL        Com0019
  C:4B05H         SYMBOL        L?0026
  C:4B05H         SYMBOL        L?0027
  -------         PROC          COM0019
  -------         ENDPROC       COM0019
  -------         PROC          ADC_INIT
  C:4A73H         LINE#         45
  C:4A73H         LINE#         46
  C:4A73H         LINE#         47
  C:4A76H         LINE#         48
  C:4A79H         LINE#         49
  C:4A7CH         LINE#         50
  -------         ENDPROC       ADC_INIT
  -------         PROC          ADC_ENABLE
  C:0026H         LINE#         53
  C:0026H         LINE#         54
  C:0026H         LINE#         55
  C:0029H         LINE#         56
  -------         ENDPROC       ADC_ENABLE
  -------         PROC          ADC_GETXVAL
  C:4AB4H         LINE#         64
  C:4AB4H         LINE#         65
  C:4AB4H         LINE#         66
  C:4ABCH         LINE#         67
BL51 BANKED LINKER/LOCATER V6.22                                                      06/25/2018  15:28:32  PAGE 22


  -------         ENDPROC       ADC_GETXVAL
  -------         PROC          ADC_GETYVAL
  C:4ABDH         LINE#         75
  C:4ABDH         LINE#         76
  C:4ABDH         LINE#         77
  C:4AC5H         LINE#         78
  -------         ENDPROC       ADC_GETYVAL
  -------         PROC          ADC_GETTEMP
  C:4AC6H         LINE#         86
  C:4AC6H         LINE#         87
  C:4AC6H         LINE#         88
  C:4ACEH         LINE#         89
  -------         ENDPROC       ADC_GETTEMP
  -------         PROC          ADC_SETINIT
  -------         DO            
  D:0007H         SYMBOL        SfrPage_
  -------         ENDDO         
  C:457FH         LINE#         110
  C:457FH         LINE#         111
  C:4581H         LINE#         114
  C:4584H         LINE#         115
  C:4587H         LINE#         116
  C:458AH         LINE#         117
  C:458DH         LINE#         118
  C:4590H         LINE#         119
  C:4593H         LINE#         120
  C:4595H         LINE#         121
  C:4598H         LINE#         122
  C:459BH         LINE#         123
  C:459EH         LINE#         124
  C:45A1H         LINE#         125
  C:45A3H         LINE#         126
  C:45A6H         LINE#         127
  C:45A9H         LINE#         128
  C:45ABH         LINE#         129
  -------         ENDPROC       ADC_SETINIT
  -------         PROC          ADC_VREFINIT
  C:4BF2H         LINE#         131
  C:4BF2H         LINE#         132
  C:4BF2H         LINE#         133
  C:4BF5H         LINE#         134
  -------         ENDPROC       ADC_VREFINIT
  -------         PROC          ADC_ISRINIT
  C:4BF6H         LINE#         136
  C:4BF6H         LINE#         137
  C:4BF6H         LINE#         138
  C:4BF9H         LINE#         139
  -------         ENDPROC       ADC_ISRINIT
  -------         PROC          _ADCFILTER
  D:0057H         SYMBOL        p_adc
  D:005AH         SYMBOL        val
  C:3306H         LINE#         148
  C:3310H         LINE#         149
  C:3310H         LINE#         150
  C:3325H         LINE#         151
  C:3325H         LINE#         153
  C:3374H         LINE#         154
BL51 BANKED LINKER/LOCATER V6.22                                                      06/25/2018  15:28:32  PAGE 23


  C:3374H         LINE#         156
  C:3374H         LINE#         157
  C:3383H         LINE#         158
  C:338AH         LINE#         159
  C:338AH         LINE#         160
  -------         ENDPROC       _ADCFILTER
  -------         PROC          ADCENTITYINIT
  C:3E1DH         LINE#         218
  C:3E1DH         LINE#         219
  C:3E1DH         LINE#         221
  C:3E22H         LINE#         222
  C:3E24H         LINE#         223
  C:3E26H         LINE#         224
  C:3E2CH         LINE#         226
  C:3E36H         LINE#         228
  C:3E3CH         LINE#         229
  C:3E3FH         LINE#         230
  C:3E41H         LINE#         231
  C:3E47H         LINE#         233
  C:3E4FH         LINE#         235
  C:3E55H         LINE#         236
  C:3E58H         LINE#         237
  C:3E5AH         LINE#         238
  C:3E60H         LINE#         240
  -------         ENDPROC       ADCENTITYINIT
  -------         PROC          _ADC_SAVEANDSWITCH
  D:0004H         SYMBOL        val
  -------         DO            
  D:0054H         SYMBOL        adc_ent
  -------         ENDDO         
  C:381EH         LINE#         264
  C:3822H         LINE#         265
  C:3822H         LINE#         267
  C:382BH         LINE#         268
  C:3830H         LINE#         269
  C:3836H         LINE#         271
  C:383EH         LINE#         272
  C:383EH         LINE#         273
  C:384EH         LINE#         274
  C:384EH         LINE#         275
  C:385AH         LINE#         276
  C:385CH         LINE#         277
  C:3864H         LINE#         279
  C:386DH         LINE#         281
  C:3873H         LINE#         282
  C:3876H         LINE#         284
  C:387CH         LINE#         285
  C:3885H         LINE#         286
  C:3888H         LINE#         287
  -------         ENDPROC       _ADC_SAVEANDSWITCH
  -------         PROC          ADC_ISR
  -------         DO            
  X:04CCH         SYMBOL        sum
  X:04CEH         SYMBOL        cnt
  -------         ENDDO         
  C:35F5H         LINE#         295
  C:3612H         LINE#         300
BL51 BANKED LINKER/LOCATER V6.22                                                      06/25/2018  15:28:32  PAGE 24


  C:3614H         LINE#         301
  C:361FH         LINE#         302
  C:3628H         LINE#         303
  C:3628H         LINE#         304
  C:363DH         LINE#         305
  C:3644H         LINE#         306
  C:3646H         LINE#         307
  C:3648H         LINE#         309
  C:364BH         LINE#         310
  -------         ENDPROC       ADC_ISR
  -------         ENDMOD        ADCDRV

  -------         MODULE        CALIBRATION
  C:0000H         SYMBOL        _ICE_DUMMY_
  C:4A20H         SYMBOL        _Ang_WrAngVal
  C:4B0DH         PUBLIC        _SetAngCalCnt
  D:0090H         PUBLIC        P1
  X:0000H         PUBLIC        Ang_Xcal
  D:00A0H         PUBLIC        P2
  X:0166H         PUBLIC        Ang_Ycal
  C:4BA4H         PUBLIC        AngXCalcPrm
  C:4BAAH         PUBLIC        AngYCalcPrm
  C:2777H         SYMBOL        _Ang_CalcPrm
  C:2EA7H         PUBLIC        AngCalDataInit
  C:4B8CH         PUBLIC        GetAngXCalCnt
  C:4B92H         PUBLIC        GetAngYCalCnt
  C:4B23H         PUBLIC        _GetAngXCalAdcVal
  C:4B2AH         PUBLIC        _GetAngYCalAdcVal
  C:4B98H         PUBLIC        _SetAngXCalCnt
  C:4B9EH         PUBLIC        _SetAngYCalCnt
  C:4A8AH         SYMBOL        _Ang_RdAdcVal
  C:4BFAH         SYMBOL        _Ang_SetCalCnt
  C:494BH         PUBLIC        _SetAngXCalAdcVal
  C:495DH         PUBLIC        _SetAngYCalAdcVal
  C:4B15H         PUBLIC        _GetAngXCalAngVal
  C:4B1CH         PUBLIC        _GetAngYCalAngVal
  C:4A7FH         SYMBOL        _Ang_RdAngVal
  C:4ACFH         PUBLIC        _SetAngXCalAngVal
  C:4AD8H         PUBLIC        _SetAngYCalAngVal
  C:4981H         SYMBOL        _Ang_WrAdcVal
  C:3889H         PUBLIC        CalibInit
  C:338BH         SYMBOL        Com001E
  C:338BH         SYMBOL        L?0031
  C:338EH         SYMBOL        L?0032
  C:3394H         SYMBOL        L?0033
  C:3396H         SYMBOL        L?0034
  C:339CH         SYMBOL        L?0035
  C:33C1H         SYMBOL        L?0036
  C:33C9H         SYMBOL        L?0037
  C:33D2H         SYMBOL        L?0038
  C:33EFH         SYMBOL        L?0039
  C:33EFH         SYMBOL        L?0040
  C:33F1H         SYMBOL        L?0041
  C:33F8H         SYMBOL        L?0042
  C:33F8H         SYMBOL        L?0043
  C:33FAH         SYMBOL        L?0044
  C:3401H         SYMBOL        L?0045
BL51 BANKED LINKER/LOCATER V6.22                                                      06/25/2018  15:28:32  PAGE 25


  -------         PROC          COM001E
  -------         ENDPROC       COM001E
  -------         PROC          _ANG_SETCALCNT
  D:0001H         SYMBOL        p_cal
  D:0005H         SYMBOL        num
  C:4BFAH         LINE#         38
  C:4BFAH         LINE#         39
  C:4BFAH         LINE#         40
  -------         ENDPROC       _ANG_SETCALCNT
  -------         PROC          _ANG_RDANGVAL
  D:0001H         SYMBOL        p_cal
  D:0005H         SYMBOL        posid
  C:4A7FH         LINE#         49
  C:4A7FH         LINE#         50
  C:4A7FH         LINE#         51
  C:4A89H         LINE#         52
  -------         ENDPROC       _ANG_RDANGVAL
  -------         PROC          _ANG_RDADCVAL
  D:0001H         SYMBOL        p_cal
  D:0005H         SYMBOL        posid
  C:4A8AH         LINE#         61
  C:4A8AH         LINE#         62
  C:4A8AH         LINE#         63
  C:4A94H         LINE#         64
  -------         ENDPROC       _ANG_RDADCVAL
  -------         PROC          _ANG_WRANGVAL
  D:0001H         SYMBOL        p_cal
  D:0004H         SYMBOL        val
  D:0045H         SYMBOL        posid
  C:4A20H         LINE#         72
  C:4A20H         LINE#         73
  C:4A20H         LINE#         74
  -------         ENDPROC       _ANG_WRANGVAL
  -------         PROC          _ANG_WRADCVAL
  D:0001H         SYMBOL        p_cal
  D:0004H         SYMBOL        val
  D:003EH         SYMBOL        posid
  C:4981H         LINE#         84
  C:4981H         LINE#         85
  C:4981H         LINE#         86
  -------         ENDPROC       _ANG_WRADCVAL
  C:2867H         SYMBOL        L?0046
  -------         PROC          _ANG_CALCPRM
  D:002CH         SYMBOL        p_cal
  -------         DO            
  D:002FH         SYMBOL        ang0
  D:0033H         SYMBOL        ang1
  D:0037H         SYMBOL        i
  -------         ENDDO         
  C:2777H         LINE#         96
  C:277DH         LINE#         97
  C:277DH         LINE#         102
  C:2794H         LINE#         103
  C:2794H         LINE#         104
  C:27A5H         LINE#         105
  C:27C1H         LINE#         106
  C:2824H         LINE#         107
BL51 BANKED LINKER/LOCATER V6.22                                                      06/25/2018  15:28:32  PAGE 26


  C:2861H         LINE#         108
  C:2866H         LINE#         109
  -------         ENDPROC       _ANG_CALCPRM
  -------         PROC          GETANGXCALCNT
  C:4B8CH         LINE#         113
  C:4B8CH         LINE#         114
  C:4B8CH         LINE#         115
  C:4B91H         LINE#         116
  -------         ENDPROC       GETANGXCALCNT
  -------         PROC          GETANGYCALCNT
  C:4B92H         LINE#         123
  C:4B92H         LINE#         124
  C:4B92H         LINE#         125
  C:4B97H         LINE#         126
  -------         ENDPROC       GETANGYCALCNT
  -------         PROC          _SETANGXCALCNT
  D:0005H         SYMBOL        cnt
  C:4B98H         LINE#         137
  C:4B98H         LINE#         138
  C:4B98H         LINE#         139
  -------         ENDPROC       _SETANGXCALCNT
  -------         PROC          _SETANGYCALCNT
  D:0005H         SYMBOL        cnt
  C:4B9EH         LINE#         144
  C:4B9EH         LINE#         145
  C:4B9EH         LINE#         146
  -------         ENDPROC       _SETANGYCALCNT
  -------         PROC          _SETANGCALCNT
  D:0006H         SYMBOL        cnt
  C:4B0DH         LINE#         151
  C:4B0FH         LINE#         152
  C:4B0FH         LINE#         153
  C:4B12H         LINE#         154
  -------         ENDPROC       _SETANGCALCNT
  -------         PROC          _GETANGXCALANGVAL
  D:0005H         SYMBOL        pos
  C:4B15H         LINE#         166
  C:4B15H         LINE#         167
  C:4B15H         LINE#         168
  C:4B1BH         LINE#         169
  -------         ENDPROC       _GETANGXCALANGVAL
  -------         PROC          _GETANGYCALANGVAL
  D:0005H         SYMBOL        pos
  C:4B1CH         LINE#         177
  C:4B1CH         LINE#         178
  C:4B1CH         LINE#         179
  C:4B22H         LINE#         180
  -------         ENDPROC       _GETANGYCALANGVAL
  -------         PROC          _GETANGXCALADCVAL
  D:0005H         SYMBOL        pos
  C:4B23H         LINE#         189
  C:4B23H         LINE#         190
  C:4B23H         LINE#         191
  C:4B29H         LINE#         192
  -------         ENDPROC       _GETANGXCALADCVAL
  -------         PROC          _GETANGYCALADCVAL
  D:0005H         SYMBOL        pos
BL51 BANKED LINKER/LOCATER V6.22                                                      06/25/2018  15:28:32  PAGE 27


  C:4B2AH         LINE#         201
  C:4B2AH         LINE#         202
  C:4B2AH         LINE#         203
  C:4B30H         LINE#         204
  -------         ENDPROC       _GETANGYCALADCVAL
  -------         PROC          _SETANGXCALANGVAL
  D:0004H         SYMBOL        val
  D:003DH         SYMBOL        pos
  C:4ACFH         LINE#         217
  C:4ACFH         LINE#         218
  C:4ACFH         LINE#         219
  -------         ENDPROC       _SETANGXCALANGVAL
  -------         PROC          _SETANGYCALANGVAL
  D:0004H         SYMBOL        val
  D:003DH         SYMBOL        pos
  C:4AD8H         LINE#         228
  C:4AD8H         LINE#         229
  C:4AD8H         LINE#         230
  -------         ENDPROC       _SETANGYCALANGVAL
  -------         PROC          _SETANGXCALADCVAL
  D:0082H         SYMBOL        val
  D:0007H         SYMBOL        pos
  C:494BH         LINE#         240
  C:4951H         LINE#         241
  C:4951H         LINE#         242
  -------         ENDPROC       _SETANGXCALADCVAL
  -------         PROC          _SETANGYCALADCVAL
  D:0082H         SYMBOL        val
  D:0007H         SYMBOL        pos
  C:495DH         LINE#         251
  C:4963H         LINE#         252
  C:4963H         LINE#         253
  -------         ENDPROC       _SETANGYCALADCVAL
  -------         PROC          ANGXCALCPRM
  C:4BA4H         LINE#         263
  C:4BA4H         LINE#         264
  C:4BA4H         LINE#         265
  -------         ENDPROC       ANGXCALCPRM
  -------         PROC          ANGYCALCPRM
  C:4BAAH         LINE#         271
  C:4BAAH         LINE#         272
  C:4BAAH         LINE#         273
  -------         ENDPROC       ANGYCALCPRM
  -------         PROC          ANGCALDATAINIT
  -------         DO            
  D:0003H         SYMBOL        i
  -------         ENDDO         
  C:2EA7H         LINE#         285
  C:2EA7H         LINE#         286
  C:2EA7H         LINE#         288
  C:2EACH         LINE#         289
  C:2EAEH         LINE#         290
  C:2EAEH         LINE#         291
  C:2EB4H         LINE#         292
  C:2EC2H         LINE#         294
  C:2EC8H         LINE#         295
  C:2ED6H         LINE#         296
BL51 BANKED LINKER/LOCATER V6.22                                                      06/25/2018  15:28:32  PAGE 28


  C:2EDCH         LINE#         298
  C:2EE6H         LINE#         299
  C:2EF0H         LINE#         300
  C:2EFAH         LINE#         301
  C:2F04H         LINE#         302
  C:2F0EH         LINE#         303
  C:2F18H         LINE#         305
  C:2F22H         LINE#         306
  C:2F2CH         LINE#         307
  C:2F36H         LINE#         308
  C:2F40H         LINE#         309
  C:2F4AH         LINE#         310
  C:2F54H         LINE#         312
  -------         ENDPROC       ANGCALDATAINIT
  -------         PROC          CALIBINIT
  C:3889H         LINE#         320
  C:3889H         LINE#         321
  C:3889H         LINE#         337
  C:3895H         LINE#         338
  C:389FH         LINE#         339
  C:38A9H         LINE#         340
  C:38B3H         LINE#         341
  C:38BDH         LINE#         344
  C:38C7H         LINE#         345
  C:38D1H         LINE#         346
  C:38DBH         LINE#         347
  C:38E5H         LINE#         348
  -------         ENDPROC       CALIBINIT
  -------         ENDMOD        CALIBRATION

  -------         MODULE        CMDSUB
  C:0000H         SYMBOL        _ICE_DUMMY_
  C:48DDH         PUBLIC        Adc_YCalSta
  D:0012H         SYMBOL        px_axis
  D:0090H         PUBLIC        P1
  D:0014H         SYMBOL        py_axis
  D:00A0H         PUBLIC        P2
  C:3BD8H         PUBLIC        _AngChkDiff
  X:093AH         PUBLIC        SendSpeedNum
  X:093BH         PUBLIC        SystemVer
  X:094BH         PUBLIC        SendActPosi
  X:094CH         PUBLIC        ACalXId
  X:094DH         PUBLIC        ACalYId
  C:30ADH         PUBLIC        _Adc_XCalProc
  C:3147H         PUBLIC        _Adc_YCalProc
  C:3C2DH         PUBLIC        Adc_XCalStop
  C:3C82H         PUBLIC        Adc_YCalStop
  C:48C6H         PUBLIC        Adc_XCalSta
  C:4295H         SYMBOL        Com0018
  C:4295H         SYMBOL        L?0025
  C:4295H         SYMBOL        L?0026
  C:42A3H         SYMBOL        L?0027
  C:42A3H         SYMBOL        L?0028
  C:42B1H         SYMBOL        L?0029
  C:42B8H         SYMBOL        L?0030
  C:42BBH         SYMBOL        L?0031
  C:42BCH         SYMBOL        L?0032
BL51 BANKED LINKER/LOCATER V6.22                                                      06/25/2018  15:28:32  PAGE 29


  C:42C3H         SYMBOL        L?0033
  C:42C3H         SYMBOL        L?0034
  C:42CAH         SYMBOL        L?0035
  C:42CAH         SYMBOL        L?0036
  -------         PROC          COM0018
  -------         ENDPROC       COM0018
  -------         PROC          _ANGCHKDIFF
  D:0031H         SYMBOL        ang
  D:0035H         SYMBOL        adc
  D:0037H         SYMBOL        num
  D:0038H         SYMBOL        angarr
  D:003BH         SYMBOL        adcarr
  -------         DO            
  X:095BH         SYMBOL        i
  -------         ENDDO         
  C:3BD8H         LINE#         37
  C:3BE0H         LINE#         38
  C:3BE0H         LINE#         40
  C:3BEEH         LINE#         41
  C:3C0BH         LINE#         42
  C:3C0BH         LINE#         43
  C:3C1FH         LINE#         44
  C:3C22H         LINE#         45
  C:3C22H         LINE#         46
  C:3C2AH         LINE#         47
  C:3C2CH         LINE#         48
  -------         ENDPROC       _ANGCHKDIFF
  -------         PROC          ADC_XCALSTA
  C:48C6H         LINE#         56
  C:48C6H         LINE#         57
  C:48C6H         LINE#         58
  C:48CFH         LINE#         59
  C:48D5H         LINE#         60
  C:48DAH         LINE#         61
  C:48DCH         LINE#         62
  -------         ENDPROC       ADC_XCALSTA
  -------         PROC          _ADC_XCALPROC
  D:002BH         SYMBOL        ang
  D:002FH         SYMBOL        adc
  C:30ADH         LINE#         70
  C:30B5H         LINE#         71
  C:30B5H         LINE#         72
  C:30C0H         LINE#         73
  C:30F8H         LINE#         74
  C:30FBH         LINE#         75
  C:310DH         LINE#         76
  C:312DH         LINE#         77
  C:313EH         LINE#         78
  C:3144H         LINE#         79
  C:3146H         LINE#         80
  -------         ENDPROC       _ADC_XCALPROC
  -------         PROC          ADC_XCALSTOP
  -------         DO            
  D:002BH         SYMBOL        n
  -------         ENDDO         
  C:3C2DH         LINE#         89
  C:3C2DH         LINE#         90
BL51 BANKED LINKER/LOCATER V6.22                                                      06/25/2018  15:28:32  PAGE 30


  C:3C2DH         LINE#         91
  C:3C37H         LINE#         93
  C:3C42H         LINE#         94
  C:3C4DH         LINE#         95
  C:3C52H         LINE#         96
  C:3C7CH         LINE#         98
  C:3C7FH         LINE#         99
  C:3C81H         LINE#         100
  -------         ENDPROC       ADC_XCALSTOP
  -------         PROC          ADC_YCALSTA
  C:48DDH         LINE#         110
  C:48DDH         LINE#         111
  C:48DDH         LINE#         112
  C:48E6H         LINE#         113
  C:48ECH         LINE#         114
  C:48F1H         LINE#         115
  C:48F3H         LINE#         116
  -------         ENDPROC       ADC_YCALSTA
  -------         PROC          _ADC_YCALPROC
  D:002BH         SYMBOL        ang
  D:002FH         SYMBOL        adc
  C:3147H         LINE#         123
  C:314FH         LINE#         124
  C:314FH         LINE#         125
  C:315AH         LINE#         126
  C:3192H         LINE#         127
  C:3195H         LINE#         128
  C:31A7H         LINE#         129
  C:31C7H         LINE#         130
  C:31D8H         LINE#         131
  C:31DEH         LINE#         132
  C:31E0H         LINE#         133
  -------         ENDPROC       _ADC_YCALPROC
  -------         PROC          ADC_YCALSTOP
  -------         DO            
  D:002BH         SYMBOL        n
  -------         ENDDO         
  C:3C82H         LINE#         135
  C:3C82H         LINE#         136
  C:3C82H         LINE#         137
  C:3C8CH         LINE#         139
  C:3C97H         LINE#         140
  C:3CA2H         LINE#         141
  C:3CA7H         LINE#         142
  C:3CD1H         LINE#         144
  C:3CD4H         LINE#         145
  C:3CD6H         LINE#         146
  -------         ENDPROC       ADC_YCALSTOP
  -------         ENDMOD        CMDSUB

  -------         MODULE        COMM
  C:0000H         SYMBOL        _ICE_DUMMY_
  D:0090H         PUBLIC        P1
  D:00A0H         PUBLIC        P2
  B:00A8H.7       PUBLIC        EA
  C:4863H         PUBLIC        Comm_TimerProc
  D:00A7H         PUBLIC        SFRPAGE
BL51 BANKED LINKER/LOCATER V6.22                                                      06/25/2018  15:28:32  PAGE 31


  C:4057H         PUBLIC        _Comm_GetChar
  X:0667H         SYMBOL        CommTimer
  D:00B8H         PUBLIC        IP
  C:3495H         PUBLIC        Comm_Isr
  C:4BFEH         PUBLIC        Comm_SendStop
  C:4BB0H         PUBLIC        Comm_SendSta
  D:00ABH         PUBLIC        SBCON0
  B:0098H.7       PUBLIC        OVR0
  C:411FH         PUBLIC        _Comm_PutChar
  X:0669H         PUBLIC        CommBuf
  C:47D6H         PUBLIC        Comm_HardwareInit
  B:00A8H.4       PUBLIC        ES0
  B:0098H.0       PUBLIC        RI0
  B:0098H.1       PUBLIC        TI0
  B:0020H.0       PUBLIC        CommRxFlag
  C:490BH         PUBLIC        Comm_SoftwareInit
  B:0020H.1       PUBLIC        CommTxFlag
  C:4014H         PUBLIC        _Comm_GetTxChar
  D:0099H         PUBLIC        SBUF0
  C:4776H         PUBLIC        _Comm_PutStr
  D:00ACH         PUBLIC        SBRL0
  D:0098H         PUBLIC        SCON0
  C:430CH         PUBLIC        _Comm_PutRxChar
  C:4B31H         SYMBOL        Com0022
  C:4B31H         SYMBOL        L?0035
  C:4B31H         SYMBOL        L?0036
  -------         PROC          COM0022
  -------         ENDPROC       COM0022
  -------         PROC          COMM_ISR
  -------         DO            
  D:006EH         SYMBOL        temp
  D:006FH         SYMBOL        err
  -------         ENDDO         
  C:3495H         LINE#         29
  C:34B2H         LINE#         34
  C:34B5H         LINE#         35
  C:34B7H         LINE#         36
  C:34C2H         LINE#         37
  C:34C8H         LINE#         38
  C:34CBH         LINE#         40
  C:34CDH         LINE#         41
  C:34CFH         LINE#         43
  C:34D2H         LINE#         44
  C:34D4H         LINE#         45
  C:34D4H         LINE#         46
  C:34D4H         LINE#         48
  C:34D7H         LINE#         49
  C:34D9H         LINE#         50
  C:34DCH         LINE#         52
  C:34DFH         LINE#         54
  C:34DFH         LINE#         55
  C:34E4H         LINE#         56
  C:34EDH         LINE#         57
  C:34EDH         LINE#         58
  C:34EDH         LINE#         59
  C:34F0H         LINE#         60
  C:34F2H         LINE#         61
BL51 BANKED LINKER/LOCATER V6.22                                                      06/25/2018  15:28:32  PAGE 32


  C:34F2H         LINE#         62
  -------         ENDPROC       COMM_ISR
  -------         PROC          COMM_HARDWAREINIT
  -------         DO            
  D:0007H         SYMBOL        SfrPage_
  -------         ENDDO         
  C:47D6H         LINE#         64
  C:47D6H         LINE#         65
  C:47D8H         LINE#         68
  C:47DBH         LINE#         69
  C:47DEH         LINE#         73
  C:47E4H         LINE#         74
  C:47E7H         LINE#         88
  C:47EAH         LINE#         89
  C:47ECH         LINE#         91
  C:47EFH         LINE#         92
  C:47F1H         LINE#         93
  C:47F3H         LINE#         94
  -------         ENDPROC       COMM_HARDWAREINIT
  -------         PROC          COMM_SOFTWAREINIT
  C:490BH         LINE#         96
  C:490BH         LINE#         97
  C:490BH         LINE#         98
  C:4912H         LINE#         99
  C:4914H         LINE#         100
  C:4916H         LINE#         101
  C:491CH         LINE#         102
  C:491EH         LINE#         103
  C:4920H         LINE#         104
  -------         ENDPROC       COMM_SOFTWAREINIT
  -------         PROC          COMM_SENDSTA
  C:4BB0H         LINE#         125
  C:4BB0H         LINE#         126
  C:4BB0H         LINE#         127
  C:4BB3H         LINE#         128
  C:4BB5H         LINE#         129
  -------         ENDPROC       COMM_SENDSTA
  -------         PROC          COMM_SENDSTOP
  C:4BFEH         LINE#         131
  C:4BFEH         LINE#         132
  C:4BFEH         LINE#         133
  C:4C01H         LINE#         134
  -------         ENDPROC       COMM_SENDSTOP
  -------         PROC          _COMM_GETTXCHAR
  D:0001H         SYMBOL        err
  -------         DO            
  D:0007H         SYMBOL        c
  -------         ENDDO         
  C:4014H         LINE#         143
  C:4014H         LINE#         144
  C:4014H         LINE#         147
  C:4016H         LINE#         148
  C:4025H         LINE#         149
  C:4028H         LINE#         150
  C:403BH         LINE#         151
  C:4044H         LINE#         152
  C:4046H         LINE#         153
BL51 BANKED LINKER/LOCATER V6.22                                                      06/25/2018  15:28:32  PAGE 33


  C:4046H         LINE#         154
  C:404AH         LINE#         155
  C:404CH         LINE#         156
  C:404DH         LINE#         157
  C:404DH         LINE#         159
  C:4052H         LINE#         160
  C:4054H         LINE#         161
  C:4056H         LINE#         162
  C:4056H         LINE#         163
  -------         ENDPROC       _COMM_GETTXCHAR
  -------         PROC          _COMM_PUTCHAR
  D:0007H         SYMBOL        c
  C:411FH         LINE#         172
  C:411FH         LINE#         173
  C:411FH         LINE#         174
  C:4121H         LINE#         175
  C:4130H         LINE#         176
  C:4130H         LINE#         177
  C:4137H         LINE#         178
  C:414AH         LINE#         179
  C:4153H         LINE#         180
  C:4153H         LINE#         181
  C:4155H         LINE#         182
  C:4155H         LINE#         183
  C:4157H         LINE#         184
  C:415AH         LINE#         185
  C:415AH         LINE#         187
  C:415CH         LINE#         188
  C:415EH         LINE#         189
  C:415EH         LINE#         190
  -------         ENDPROC       _COMM_PUTCHAR
  -------         PROC          _COMM_PUTRXCHAR
  D:0007H         SYMBOL        c
  C:430CH         LINE#         203
  C:430CH         LINE#         204
  C:430CH         LINE#         205
  C:430EH         LINE#         206
  C:431DH         LINE#         207
  C:431DH         LINE#         208
  C:4324H         LINE#         209
  C:4337H         LINE#         210
  C:4340H         LINE#         211
  C:4340H         LINE#         212
  C:4342H         LINE#         213
  C:4342H         LINE#         214
  C:4342H         LINE#         215
  C:4344H         LINE#         216
  -------         ENDPROC       _COMM_PUTRXCHAR
  -------         PROC          _COMM_GETCHAR
  D:0001H         SYMBOL        err
  -------         DO            
  D:0007H         SYMBOL        c
  -------         ENDDO         
  C:4057H         LINE#         224
  C:4057H         LINE#         225
  C:4057H         LINE#         228
  C:4059H         LINE#         229
BL51 BANKED LINKER/LOCATER V6.22                                                      06/25/2018  15:28:32  PAGE 34


  C:4068H         LINE#         230
  C:406BH         LINE#         231
  C:407EH         LINE#         232
  C:4087H         LINE#         233
  C:4087H         LINE#         234
  C:4089H         LINE#         235
  C:4089H         LINE#         236
  C:408DH         LINE#         237
  C:408FH         LINE#         238
  C:4090H         LINE#         239
  C:4090H         LINE#         241
  C:4095H         LINE#         242
  C:4097H         LINE#         243
  C:4099H         LINE#         244
  C:4099H         LINE#         245
  -------         ENDPROC       _COMM_GETCHAR
  -------         PROC          _COMM_PUTSTR
  D:0035H         SYMBOL        ptr
  D:0005H         SYMBOL        n
  -------         DO            
  D:0004H         SYMBOL        i
  -------         ENDDO         
  C:4776H         LINE#         248
  C:477CH         LINE#         249
  C:477CH         LINE#         251
  C:4783H         LINE#         252
  C:4783H         LINE#         253
  C:4793H         LINE#         254
  C:4796H         LINE#         255
  -------         ENDPROC       _COMM_PUTSTR
  -------         PROC          COMM_TIMERPROC
  C:4863H         LINE#         257
  C:4863H         LINE#         258
  C:4863H         LINE#         259
  C:4872H         LINE#         260
  C:4872H         LINE#         261
  C:4879H         LINE#         262
  C:487BH         LINE#         263
  C:487BH         LINE#         264
  -------         ENDPROC       COMM_TIMERPROC
  -------         ENDMOD        COMM

  -------         MODULE        DELAY
  C:0000H         SYMBOL        _ICE_DUMMY_
  D:0090H         PUBLIC        P1
  D:00A0H         PUBLIC        P2
  C:4AA0H         PUBLIC        delay_ms_
  C:48F4H         PUBLIC        _delay_ms
  C:49D5H         PUBLIC        delay_100us
  -------         PROC          DELAY_100US
  -------         DO            
  D:0006H         SYMBOL        i
  -------         ENDDO         
  C:49D5H         LINE#         25
  C:49D5H         LINE#         26
  C:49D5H         LINE#         29
  C:49E3H         LINE#         30
BL51 BANKED LINKER/LOCATER V6.22                                                      06/25/2018  15:28:32  PAGE 35


  -------         ENDPROC       DELAY_100US
  -------         PROC          DELAY_MS_
  -------         DO            
  D:0005H         SYMBOL        i
  -------         ENDDO         
  C:4AA0H         LINE#         32
  C:4AA0H         LINE#         33
  C:4AA0H         LINE#         36
  C:4AA2H         LINE#         37
  C:4AA5H         LINE#         38
  C:4AA9H         LINE#         39
  -------         ENDPROC       DELAY_MS_
  -------         PROC          _DELAY_MS
  D:0002H         SYMBOL        n
  -------         DO            
  D:0082H         SYMBOL        i
  -------         ENDDO         
  C:48F4H         LINE#         41
  C:48F8H         LINE#         42
  C:48F8H         LINE#         45
  C:4904H         LINE#         46
  C:4907H         LINE#         47
  C:490AH         LINE#         48
  -------         ENDPROC       _DELAY_MS
  -------         ENDMOD        DELAY

  -------         MODULE        FILTER
  C:0000H         SYMBOL        _ICE_DUMMY_
  C:2CFFH         PUBLIC        _SlideWinFilter
  C:46EBH         PUBLIC        _ValInRange
  C:39B6H         PUBLIC        _Filter_1st
  -------         PROC          _VALINRANGE
  D:0006H         SYMBOL        old_val
  D:0004H         SYMBOL        new_val
  D:0002H         SYMBOL        range
  C:46EBH         LINE#         26
  C:46EBH         LINE#         27
  C:46EBH         LINE#         28
  C:4709H         LINE#         29
  C:470CH         LINE#         31
  C:470EH         LINE#         32
  -------         ENDPROC       _VALINRANGE
  -------         PROC          _SLIDEWINFILTER
  D:005CH         SYMBOL        pbufpos
  D:005FH         SYMBOL        pbufcnt
  D:0062H         SYMBOL        pbuf
  D:0065H         SYMBOL        val
  D:0067H         SYMBOL        ftcnt
  -------         DO            
  D:0069H         SYMBOL        data_ram
  D:006DH         SYMBOL        i
  -------         ENDDO         
  C:2CFFH         LINE#         41
  C:2D05H         LINE#         42
  C:2D05H         LINE#         43
  C:2D0EH         LINE#         45
  C:2D1CH         LINE#         46
BL51 BANKED LINKER/LOCATER V6.22                                                      06/25/2018  15:28:32  PAGE 36


  C:2D1CH         LINE#         47
  C:2D20H         LINE#         48
  C:2D20H         LINE#         50
  C:2D4CH         LINE#         51
  C:2D57H         LINE#         54
  C:2D68H         LINE#         55
  C:2D68H         LINE#         56
  C:2D6DH         LINE#         57
  C:2D72H         LINE#         58
  C:2D72H         LINE#         60
  C:2D72H         LINE#         61
  C:2D7FH         LINE#         62
  C:2D7FH         LINE#         63
  C:2DAFH         LINE#         64
  C:2DB3H         LINE#         65
  C:2DD9H         LINE#         66
  C:2DD9H         LINE#         67
  C:2DD9H         LINE#         68
  -------         ENDPROC       _SLIDEWINFILTER
  -------         PROC          _FILTER_1ST
  D:0027H         SYMBOL        old_val
  D:002BH         SYMBOL        new_val
  D:002DH         SYMBOL        filtercnt
  C:39B6H         LINE#         77
  C:39BEH         LINE#         78
  C:39BEH         LINE#         79
  C:3A12H         LINE#         80
  -------         ENDPROC       _FILTER_1ST
  -------         ENDMOD        FILTER

  -------         MODULE        FLASH
  C:0000H         SYMBOL        _ICE_DUMMY_
  D:0090H         PUBLIC        P1
  D:00A0H         PUBLIC        P2
  B:00A8H.7       PUBLIC        EA
  D:008FH         PUBLIC        PSCTL
  C:4A2EH         SYMBOL        FlashChk
  D:00A7H         PUBLIC        SFRPAGE
  C:409AH         SYMBOL        _Flash_BufRd
  C:4C06H         SYMBOL        Ram_CalDataInit
  C:487CH         SYMBOL        Ram_CalDataInit_User
  D:00FFH         PUBLIC        VDM0CN
  X:02CCH         PUBLIC        DispBuf
  C:3A6FH         SYMBOL        _Flash_BufWr
  C:470FH         SYMBOL        _Flash_PageErase
  C:4345H         PUBLIC        Flash_CalDataUpdate
  C:41DEH         SYMBOL        _Flash_CalDataUpdate_User
  C:4937H         PUBLIC        Flash_UserDataUpdate
  C:4492H         SYMBOL        _FlashUpdate
  C:2658H         SYMBOL        _Ram_Buf2CalData
  C:1E15H         SYMBOL        _Ram_CalData2Buf
  D:00EFH         PUBLIC        RSTSRC
  D:00ACH         PUBLIC        SBRL0
  C:45D7H         SYMBOL        _Flash_CheckSum
  C:419FH         SYMBOL        FlashArea_User
  C:2966H         PUBLIC        Flash_CalDataInit
  D:00B7H         PUBLIC        FLKEY
BL51 BANKED LINKER/LOCATER V6.22                                                      06/25/2018  15:28:32  PAGE 37


  C:3410H         SYMBOL        Com0047
  C:3410H         SYMBOL        L?0072
  C:3410H         SYMBOL        L?0073
  C:341FH         SYMBOL        L?0074
  C:341FH         SYMBOL        L?0075
  C:342EH         SYMBOL        L?0076
  C:3437H         SYMBOL        L?0078
  C:3440H         SYMBOL        L?0079
  C:3440H         SYMBOL        L?0080
  C:344BH         SYMBOL        L?0081
  C:344BH         SYMBOL        L?0082
  C:3452H         SYMBOL        L?0083
  C:3465H         SYMBOL        L?0084
  C:346EH         SYMBOL        L?0085
  C:346EH         SYMBOL        L?0086
  C:3475H         SYMBOL        L?0087
  C:3475H         SYMBOL        L?0088
  C:347EH         SYMBOL        L?0089
  C:347EH         SYMBOL        L?0090
  C:3485H         SYMBOL        L?0091
  C:3485H         SYMBOL        L?0092
  C:348CH         SYMBOL        L?0094
  -------         PROC          COM0047
  -------         ENDPROC       COM0047
  C:2A43H         SYMBOL        L?0093
  C:2A4EH         SYMBOL        L?0095
  -------         PROC          FLASH_CALDATAINIT
  -------         DO            
  D:0021H         SYMBOL        SfrPage_
  -------         ENDDO         
  C:2966H         LINE#         40
  C:2966H         LINE#         41
  C:2966H         LINE#         42
  C:2969H         LINE#         43
  C:296EH         LINE#         44
  C:2976H         LINE#         45
  C:2976H         LINE#         46
  C:2979H         LINE#         47
  C:297CH         LINE#         48
  C:297FH         LINE#         50
  C:297FH         LINE#         51
  C:2984H         LINE#         52
  C:2989H         LINE#         53
  C:299CH         LINE#         54
  C:299CH         LINE#         55
  C:299FH         LINE#         56
  C:29A1H         LINE#         58
  C:29A1H         LINE#         59
  C:29A9H         LINE#         60
  C:29BCH         LINE#         61
  C:29BCH         LINE#         62
  C:29BFH         LINE#         63
  C:29C2H         LINE#         64
  C:29CCH         LINE#         65
  C:29CEH         LINE#         67
  C:29CEH         LINE#         68
  C:29D1H         LINE#         69
BL51 BANKED LINKER/LOCATER V6.22                                                      06/25/2018  15:28:32  PAGE 38


  C:29D4H         LINE#         70
  C:29D4H         LINE#         71
  C:29D4H         LINE#         73
  C:29D4H         LINE#         75
  C:29DCH         LINE#         76
  C:29E4H         LINE#         78
  C:29EAH         LINE#         79
  C:29EDH         LINE#         81
  C:29F3H         LINE#         82
  C:29F6H         LINE#         85
  C:2A11H         LINE#         87
  C:2A14H         LINE#         88
  C:2A3FH         LINE#         89
  C:2A42H         LINE#         90
  -------         ENDPROC       FLASH_CALDATAINIT
  C:436CH         SYMBOL        L?0077
  -------         PROC          FLASH_CALDATAUPDATE
  C:4345H         LINE#         98
  C:4345H         LINE#         99
  C:4345H         LINE#         100
  C:4347H         LINE#         101
  C:434FH         LINE#         102
  C:4351H         LINE#         103
  C:4359H         LINE#         104
  C:436CH         LINE#         105
  -------         ENDPROC       FLASH_CALDATAUPDATE
  -------         PROC          FLASH_USERDATAUPDATE
  C:4937H         LINE#         106
  C:4937H         LINE#         107
  C:4937H         LINE#         109
  C:4941H         LINE#         110
  -------         ENDPROC       FLASH_USERDATAUPDATE
  -------         PROC          _FLASHUPDATE
  D:0042H         SYMBOL        addr
  D:0044H         SYMBOL        buf
  D:0047H         SYMBOL        n
  -------         DO            
  B:0020H.2       SYMBOL        ea_temp
  -------         ENDDO         
  C:4492H         LINE#         114
  C:449CH         LINE#         115
  C:449CH         LINE#         116
  C:44A0H         LINE#         117
  C:44A2H         LINE#         119
  C:44A5H         LINE#         120
  C:44ACH         LINE#         121
  C:44BFH         LINE#         123
  C:44C3H         LINE#         124
  -------         ENDPROC       _FLASHUPDATE
  -------         PROC          _FLASH_CALDATAUPDATE_USER
  D:0039H         SYMBOL        page
  D:003AH         SYMBOL        addr
  D:003CH         SYMBOL        buf
  D:003FH         SYMBOL        n
  -------         DO            
  D:0041H         SYMBOL        sum
  D:0082H         SYMBOL        pread
BL51 BANKED LINKER/LOCATER V6.22                                                      06/25/2018  15:28:32  PAGE 39


  -------         ENDDO         
  C:41DEH         LINE#         133
  C:41EAH         LINE#         134
  C:41EAH         LINE#         138
  C:41F6H         LINE#         140
  C:41FAH         LINE#         141
  C:41FFH         LINE#         143
  C:4207H         LINE#         144
  C:421AH         LINE#         145
  -------         ENDPROC       _FLASH_CALDATAUPDATE_USER
  -------         PROC          RAM_CALDATAINIT
  C:4C06H         LINE#         153
  C:4C06H         LINE#         154
  C:4C06H         LINE#         155
  -------         ENDPROC       RAM_CALDATAINIT
  -------         PROC          _RAM_CALDATA2BUF
  D:0042H         SYMBOL        page
  -------         DO            
  D:0043H         SYMBOL        i
  D:0044H         SYMBOL        j
  D:0046H         SYMBOL        k
  -------         ENDDO         
  C:1E15H         LINE#         158
  C:1E17H         LINE#         159
  C:1E17H         LINE#         162
  C:1E20H         LINE#         163
  C:1E20H         LINE#         164
  C:1E22H         LINE#         165
  C:1E22H         LINE#         167
  C:1E2FH         LINE#         168
  C:1E3CH         LINE#         169
  C:1E4BH         LINE#         170
  C:1E5AH         LINE#         172
  C:1E63H         LINE#         173
  C:1E69H         LINE#         174
  C:1E6CH         LINE#         175
  C:1E6CH         LINE#         176
  C:1E90H         LINE#         177
  C:1E97H         LINE#         179
  C:1EA2H         LINE#         181
  C:1EB3H         LINE#         183
  C:1ECCH         LINE#         186
  C:1EDAH         LINE#         187
  C:1EE8H         LINE#         189
  C:1EF3H         LINE#         190
  C:1EFAH         LINE#         191
  C:1EFAH         LINE#         192
  C:1EFAH         LINE#         193
  C:1F03H         LINE#         195
  C:1F03H         LINE#         196
  C:1F03H         LINE#         197
  C:1F06H         LINE#         198
  C:1F0FH         LINE#         199
  C:1F0FH         LINE#         200
  C:1F17H         LINE#         201
  C:1F1FH         LINE#         202
  C:1F27H         LINE#         203
BL51 BANKED LINKER/LOCATER V6.22                                                      06/25/2018  15:28:32  PAGE 40


  C:1F2FH         LINE#         205
  C:1F35H         LINE#         207
  C:1F43H         LINE#         208
  C:1F51H         LINE#         210
  C:1F5FH         LINE#         211
  C:1F6DH         LINE#         214
  C:1F80H         LINE#         216
  C:1F8BH         LINE#         217
  C:1F92H         LINE#         218
  C:1F92H         LINE#         219
  C:1F92H         LINE#         220
  C:1F9BH         LINE#         223
  C:1FA1H         LINE#         224
  C:1FACH         LINE#         225
  C:1FACH         LINE#         226
  -------         ENDPROC       _RAM_CALDATA2BUF
  -------         PROC          _RAM_BUF2CALDATA
  D:0022H         SYMBOL        page
  -------         DO            
  D:0023H         SYMBOL        i
  D:0024H         SYMBOL        j
  -------         ENDDO         
  C:2658H         LINE#         232
  C:265AH         LINE#         233
  C:265AH         LINE#         235
  C:2663H         LINE#         236
  C:2663H         LINE#         237
  C:2665H         LINE#         238
  C:2665H         LINE#         239
  C:2673H         LINE#         240
  C:2681H         LINE#         241
  C:2690H         LINE#         242
  C:269FH         LINE#         244
  C:26A8H         LINE#         245
  C:26AEH         LINE#         246
  C:26B1H         LINE#         247
  C:26B1H         LINE#         248
  C:26D5H         LINE#         249
  C:26DCH         LINE#         252
  C:26E7H         LINE#         254
  C:26F3H         LINE#         256
  C:270BH         LINE#         258
  C:270BH         LINE#         259
  C:2711H         LINE#         260
  C:2711H         LINE#         261
  C:2719H         LINE#         262
  C:2721H         LINE#         263
  C:2729H         LINE#         264
  C:2731H         LINE#         266
  C:2737H         LINE#         268
  C:2740H         LINE#         269
  C:274EH         LINE#         271
  C:275CH         LINE#         272
  C:276AH         LINE#         273
  C:2776H         LINE#         274
  C:2776H         LINE#         275
  -------         ENDPROC       _RAM_BUF2CALDATA
BL51 BANKED LINKER/LOCATER V6.22                                                      06/25/2018  15:28:32  PAGE 41


  -------         PROC          _FLASH_CHECKSUM
  D:0001H         SYMBOL        addr
  D:0048H         SYMBOL        n
  -------         DO            
  D:004AH         SYMBOL        pread
  D:0004H         SYMBOL        i
  D:0007H         SYMBOL        sum
  -------         ENDDO         
  C:45D7H         LINE#         279
  C:45DBH         LINE#         280
  C:45DBH         LINE#         282
  C:45DDH         LINE#         283
  C:45E3H         LINE#         284
  C:45EEH         LINE#         285
  C:45EEH         LINE#         286
  C:45F8H         LINE#         287
  C:45FFH         LINE#         288
  C:45FFH         LINE#         289
  -------         ENDPROC       _FLASH_CHECKSUM
  -------         PROC          _FLASH_PAGEERASE
  D:0006H         SYMBOL        addr
  -------         DO            
  D:0082H         SYMBOL        pwrite
  B:0020H.3       SYMBOL        ea_temp
  -------         ENDDO         
  C:470FH         LINE#         298
  C:470FH         LINE#         299
  C:470FH         LINE#         300
  C:4713H         LINE#         303
  C:4717H         LINE#         304
  C:4719H         LINE#         305
  C:4719H         LINE#         306
  C:471CH         LINE#         307
  C:471FH         LINE#         308
  C:4722H         LINE#         309
  C:4725H         LINE#         310
  C:4725H         LINE#         311
  C:4728H         LINE#         312
  C:472AH         LINE#         313
  C:472DH         LINE#         314
  C:4731H         LINE#         315
  -------         ENDPROC       _FLASH_PAGEERASE
  -------         PROC          _FLASH_BUFWR
  D:0006H         SYMBOL        addr
  D:004BH         SYMBOL        buf
  D:004EH         SYMBOL        n
  -------         DO            
  D:0050H         SYMBOL        pwrite
  B:0020H.3       SYMBOL        ea_temp
  D:0052H         SYMBOL        i
  -------         ENDDO         
  C:3A6FH         LINE#         324
  C:3A75H         LINE#         325
  C:3A75H         LINE#         326
  C:3A79H         LINE#         330
  C:3A7DH         LINE#         331
  C:3A7FH         LINE#         332
BL51 BANKED LINKER/LOCATER V6.22                                                      06/25/2018  15:28:32  PAGE 42


  C:3A8FH         LINE#         333
  C:3A8FH         LINE#         334
  C:3A92H         LINE#         335
  C:3A95H         LINE#         336
  C:3A98H         LINE#         337
  C:3A9BH         LINE#         338
  C:3A9BH         LINE#         339
  C:3A9EH         LINE#         340
  C:3AB8H         LINE#         341
  C:3ABBH         LINE#         342
  C:3AC5H         LINE#         343
  C:3AC9H         LINE#         344
  -------         ENDPROC       _FLASH_BUFWR
  -------         PROC          _FLASH_BUFRD
  D:0006H         SYMBOL        addr
  D:0024H         SYMBOL        buf
  D:0027H         SYMBOL        n
  -------         DO            
  D:0029H         SYMBOL        pread
  B:0020H.2       SYMBOL        ea_temp
  D:0006H         SYMBOL        i
  -------         ENDDO         
  C:409AH         LINE#         353
  C:40A0H         LINE#         354
  C:40A0H         LINE#         355
  C:40A4H         LINE#         358
  C:40A8H         LINE#         359
  C:40AAH         LINE#         360
  C:40B6H         LINE#         361
  C:40B6H         LINE#         362
  C:40D1H         LINE#         363
  C:40D8H         LINE#         364
  C:40DCH         LINE#         365
  -------         ENDPROC       _FLASH_BUFRD
  -------         PROC          FLASHCHK
  -------         DO            
  D:0007H         SYMBOL        temp
  -------         ENDDO         
  C:4A2EH         LINE#         374
  C:4A2EH         LINE#         375
  C:4A2EH         LINE#         376
  C:4A33H         LINE#         377
  C:4A39H         LINE#         379
  C:4A3BH         LINE#         380
  -------         ENDPROC       FLASHCHK
  -------         PROC          FLASHAREA_USER
  C:419FH         LINE#         389
  C:419FH         LINE#         390
  C:419FH         LINE#         391
  C:41A7H         LINE#         392
  C:41BAH         LINE#         393
  C:41BAH         LINE#         394
  C:41BDH         LINE#         395
  C:41C7H         LINE#         396
  C:41CCH         LINE#         397
  C:41CEH         LINE#         399
  C:41CEH         LINE#         400
BL51 BANKED LINKER/LOCATER V6.22                                                      06/25/2018  15:28:32  PAGE 43


  C:41D3H         LINE#         401
  C:41DDH         LINE#         403
  C:41DDH         LINE#         405
  -------         ENDPROC       FLASHAREA_USER
  -------         PROC          RAM_CALDATAINIT_USER
  C:487CH         LINE#         416
  C:487CH         LINE#         417
  C:487CH         LINE#         419
  C:4887H         LINE#         420
  C:4892H         LINE#         421
  -------         ENDPROC       RAM_CALDATAINIT_USER
  -------         ENDMOD        FLASH

  -------         MODULE        INIT
  C:0000H         SYMBOL        _ICE_DUMMY_
  D:0090H         PUBLIC        P1
  D:00A0H         PUBLIC        P2
  C:44F4H         PUBLIC        Init_SystemPara
  D:00A7H         PUBLIC        SFRPAGE
  D:00A4H         PUBLIC        P0MDOUT
  D:00A5H         PUBLIC        P1MDOUT
  D:00A6H         PUBLIC        P2MDOUT
  C:482EH         PUBLIC        Init_All
  D:00E1H         PUBLIC        XBR0
  D:00C7H         PUBLIC        XBR2
  D:00FFH         PUBLIC        VDM0CN
  D:00F1H         PUBLIC        P0MDIN
  D:00F2H         PUBLIC        P1MDIN
  D:00D4H         PUBLIC        P0SKIP
  D:00D5H         PUBLIC        P1SKIP
  D:008FH         PUBLIC        CLKSEL
  D:00A1H         PUBLIC        OSCICN
  C:4895H         SYMBOL        Sys_ClkInit
  C:46A0H         PUBLIC        Sys_PortInit
  D:00EFH         PUBLIC        RSTSRC
  -------         PROC          INIT_SYSTEMPARA
  C:44F4H         LINE#         26
  C:44F4H         LINE#         27
  C:44F4H         LINE#         28
  C:44FAH         LINE#         29
  C:44FEH         LINE#         30
  C:4516H         LINE#         33
  C:451CH         LINE#         34
  C:4522H         LINE#         35
  -------         ENDPROC       INIT_SYSTEMPARA
  -------         PROC          SYS_CLKINIT
  -------         DO            
  D:0007H         SYMBOL        SfrPage_
  -------         ENDDO         
  C:4895H         LINE#         37
  C:4895H         LINE#         38
  C:4897H         LINE#         40
  C:489AH         LINE#         42
  C:489DH         LINE#         46
  C:48A0H         LINE#         47
  C:48A5H         LINE#         48
  C:48A8H         LINE#         49
BL51 BANKED LINKER/LOCATER V6.22                                                      06/25/2018  15:28:32  PAGE 44


  C:48ABH         LINE#         51
  C:48ADH         LINE#         52
  -------         ENDPROC       SYS_CLKINIT
  -------         PROC          SYS_PORTINIT
  -------         DO            
  D:0007H         SYMBOL        SfrPage_
  -------         ENDDO         
  C:46A0H         LINE#         54
  C:46A0H         LINE#         55
  C:46A0H         LINE#         56
  C:46A2H         LINE#         57
  C:46A5H         LINE#         58
  C:46A8H         LINE#         59
  C:46ABH         LINE#         60
  C:46AEH         LINE#         61
  C:46B1H         LINE#         62
  C:46B4H         LINE#         64
  C:46B7H         LINE#         65
  C:46BAH         LINE#         66
  C:46BDH         LINE#         67
  C:46C0H         LINE#         68
  C:46C3H         LINE#         69
  C:46C5H         LINE#         70
  -------         ENDPROC       SYS_PORTINIT
  -------         PROC          INIT_ALL
  C:482EH         LINE#         72
  C:482EH         LINE#         73
  C:482EH         LINE#         74
  C:4831H         LINE#         75
  C:4834H         LINE#         77
  C:4837H         LINE#         78
  C:483AH         LINE#         80
  C:483DH         LINE#         81
  C:4840H         LINE#         82
  C:4843H         LINE#         83
  C:4846H         LINE#         84
  -------         ENDPROC       INIT_ALL
  -------         ENDMOD        INIT

  -------         MODULE        MAIN
  C:0000H         SYMBOL        _ICE_DUMMY_
  D:0090H         PUBLIC        P1
  D:00A0H         PUBLIC        P2
  B:00A8H.7       PUBLIC        EA
  D:00A7H         PUBLIC        SFRPAGE
  D:00D9H         PUBLIC        PCA0MD
  C:45ACH         PUBLIC        main
  X:0967H         PUBLIC        MenuId
  -------         PROC          MAIN
  C:45ACH         LINE#         28
  C:45ACH         LINE#         29
  C:45ACH         LINE#         30
  C:45AFH         LINE#         31
  C:45B2H         LINE#         32
  C:45B5H         LINE#         33
  C:45B7H         LINE#         34
  C:45BAH         LINE#         35
BL51 BANKED LINKER/LOCATER V6.22                                                      06/25/2018  15:28:32  PAGE 45


  C:45BFH         LINE#         36
  C:45C5H         LINE#         37
  C:45C5H         LINE#         38
  C:45C5H         LINE#         39
  C:45C8H         LINE#         40
  C:45CBH         LINE#         41
  C:45CEH         LINE#         42
  C:45D5H         LINE#         43
  -------         ENDPROC       MAIN
  -------         ENDMOD        MAIN

  -------         MODULE        MODBUSCRC
  C:0000H         SYMBOL        _ICE_DUMMY_
  D:0090H         PUBLIC        P1
  D:00A0H         PUBLIC        P2
  C:4428H         PUBLIC        _ModbusCrcCnt
  C:1A56H         SYMBOL        CrcTabHi
  C:1B56H         SYMBOL        CrcTabLi
  -------         PROC          _MODBUSCRCCNT
  D:0035H         SYMBOL        ptr
  D:0005H         SYMBOL        len
  -------         DO            
  D:0002H         SYMBOL        index
  D:0007H         SYMBOL        crchi
  D:0004H         SYMBOL        crcli
  -------         ENDDO         
  C:4428H         LINE#         114
  C:442EH         LINE#         115
  C:442EH         LINE#         119
  C:4430H         LINE#         120
  C:4432H         LINE#         122
  C:4438H         LINE#         123
  C:4438H         LINE#         124
  C:4448H         LINE#         125
  C:444EH         LINE#         126
  C:4454H         LINE#         127
  C:4456H         LINE#         128
  C:445CH         LINE#         129
  -------         ENDPROC       _MODBUSCRCCNT
  -------         ENDMOD        MODBUSCRC

  -------         MODULE        MODBUSRTU
  C:0000H         SYMBOL        _ICE_DUMMY_
  D:0090H         PUBLIC        P1
  D:00A0H         PUBLIC        P2
  C:437EH         SYMBOL        _ModRtu_RlyError
  C:46C6H         PUBLIC        _ModRtu_WrAddr
  C:4732H         PUBLIC        _ModRtu_WrBaud
  X:0953H         PUBLIC        AngRange
  C:4523H         PUBLIC        _ModRtu_SetZero
  C:2B3EH         SYMBOL        _ModRtu_RdReg
  C:0AD0H         PUBLIC        _ModRtu_RdVal
  C:44C4H         PUBLIC        _ModRtu_RxProc
  C:4A95H         PUBLIC        _ModRtu_WrCrc
  C:2A55H         SYMBOL        _ModRtu_WrReg
  X:0955H         SYMBOL        udflashtag
  C:1612H         PUBLIC        _ModRtu_WrVal
BL51 BANKED LINKER/LOCATER V6.22                                                      06/25/2018  15:28:32  PAGE 46


  C:4AE1H         PUBLIC        _ModRtu_8to16
  C:4A66H         PUBLIC        _ModRtu_Rd16u
  C:48AEH         PUBLIC        _ModRtu_Wr16u
  C:3D2AH         SYMBOL        _FloatToInt
  C:4921H         PUBLIC        _ModRtu_ChkCrc
  X:0956H         PUBLIC        AngAlarmOffset
  X:095AH         PUBLIC        Addr
  C:2873H         SYMBOL        Com0162
  C:2873H         SYMBOL        L?0355
  C:2873H         SYMBOL        L?0356
  C:2879H         SYMBOL        L?0357
  C:287FH         SYMBOL        L?0360
  C:2894H         SYMBOL        L?0361
  C:2895H         SYMBOL        L?0362
  C:28A7H         SYMBOL        L?0364
  C:28A7H         SYMBOL        L?0365
  C:28BAH         SYMBOL        L?0367
  C:28CBH         SYMBOL        L?0368
  C:28D1H         SYMBOL        L?0372
  C:28DAH         SYMBOL        L?0373
  C:28DDH         SYMBOL        L?0374
  C:28E5H         SYMBOL        L?0375
  C:28F6H         SYMBOL        L?0376
  C:28FFH         SYMBOL        L?0377
  C:2905H         SYMBOL        L?0378
  C:290CH         SYMBOL        L?0379
  C:290CH         SYMBOL        L?0380
  C:2915H         SYMBOL        L?0381
  C:2915H         SYMBOL        L?0382
  C:291CH         SYMBOL        L?0383
  C:291CH         SYMBOL        L?0384
  C:2927H         SYMBOL        L?0385
  C:2927H         SYMBOL        L?0386
  C:292FH         SYMBOL        L?0387
  C:293DH         SYMBOL        L?0388
  C:293DH         SYMBOL        L?0389
  C:2944H         SYMBOL        L?0390
  C:294FH         SYMBOL        L?0392
  C:294FH         SYMBOL        L?0393
  C:2956H         SYMBOL        L?0394
  C:295FH         SYMBOL        L?0395
  C:295FH         SYMBOL        L?0396
  -------         PROC          COM0162
  -------         ENDPROC       COM0162
  -------         PROC          _FLOATTOINT
  D:003AH         SYMBOL        ang
  D:003EH         SYMBOL        highlow
  -------         DO            
  D:0040H         SYMBOL        temp
  D:0044H         SYMBOL        vol
  -------         ENDDO         
  C:3D2AH         LINE#         27
  C:3D32H         LINE#         28
  C:3D32H         LINE#         32
  C:3D44H         LINE#         33
  C:3D4CH         LINE#         35
  C:3D57H         LINE#         36
BL51 BANKED LINKER/LOCATER V6.22                                                      06/25/2018  15:28:32  PAGE 47


  C:3D57H         LINE#         37
  C:3D59H         LINE#         38
  C:3D61H         LINE#         39
  C:3D63H         LINE#         41
  C:3D63H         LINE#         42
  C:3D65H         LINE#         43
  C:3D77H         LINE#         44
  C:3D77H         LINE#         45
  C:3D7BH         LINE#         46
  -------         ENDPROC       _FLOATTOINT
  -------         PROC          _MODRTU_CHKCRC
  D:0001H         SYMBOL        buf
  D:0005H         SYMBOL        len
  C:4921H         LINE#         54
  C:4921H         LINE#         55
  C:4921H         LINE#         56
  C:4927H         LINE#         57
  C:4927H         LINE#         58
  C:492AH         LINE#         59
  C:492AH         LINE#         60
  C:4931H         LINE#         61
  C:4931H         LINE#         62
  C:4934H         LINE#         63
  C:4934H         LINE#         65
  C:4934H         LINE#         66
  C:4936H         LINE#         67
  C:4936H         LINE#         68
  -------         ENDPROC       _MODRTU_CHKCRC
  -------         PROC          _MODRTU_WRCRC
  D:0001H         SYMBOL        buf
  D:0004H         SYMBOL        crc
  C:4A95H         LINE#         76
  C:4A95H         LINE#         77
  C:4A95H         LINE#         78
  C:4A99H         LINE#         79
  -------         ENDPROC       _MODRTU_WRCRC
  -------         PROC          _MODRTU_8TO16
  D:0001H         SYMBOL        buf
  -------         DO            
  D:0006H         SYMBOL        temp
  -------         ENDDO         
  C:4AE1H         LINE#         88
  C:4AE1H         LINE#         89
  C:4AE1H         LINE#         92
  C:4AE4H         LINE#         93
  C:4AE5H         LINE#         94
  C:4AE9H         LINE#         95
  C:4AE9H         LINE#         96
  -------         ENDPROC       _MODRTU_8TO16
  -------         PROC          _MODRTU_SETZERO
  D:0001H         SYMBOL        buf
  -------         DO            
  D:0039H         SYMBOL        temp
  -------         ENDDO         
  C:4523H         LINE#         104
  C:4523H         LINE#         105
  C:4523H         LINE#         106
BL51 BANKED LINKER/LOCATER V6.22                                                      06/25/2018  15:28:32  PAGE 48


  C:452AH         LINE#         108
  C:4532H         LINE#         109
  C:4532H         LINE#         110
  C:4538H         LINE#         111
  C:453BH         LINE#         112
  C:453DH         LINE#         113
  C:4543H         LINE#         114
  C:4543H         LINE#         115
  C:454AH         LINE#         116
  C:4550H         LINE#         117
  C:4550H         LINE#         118
  -------         ENDPROC       _MODRTU_SETZERO
  -------         PROC          _MODRTU_WR16U
  D:0001H         SYMBOL        buf
  -------         DO            
  D:0006H         SYMBOL        temp
  D:0004H         SYMBOL        dat
  -------         ENDDO         
  C:48AEH         LINE#         126
  C:48AEH         LINE#         127
  C:48AEH         LINE#         131
  C:48B1H         LINE#         132
  C:48B2H         LINE#         133
  C:48B6H         LINE#         134
  C:48C5H         LINE#         135
  C:48C5H         LINE#         136
  -------         ENDPROC       _MODRTU_WR16U
  -------         PROC          _MODRTU_WRADDR
  D:0001H         SYMBOL        buf
  -------         DO            
  D:0006H         SYMBOL        temp
  -------         ENDDO         
  C:46C6H         LINE#         144
  C:46C6H         LINE#         145
  C:46C6H         LINE#         148
  C:46C9H         LINE#         149
  C:46CAH         LINE#         150
  C:46CEH         LINE#         151
  C:46E3H         LINE#         152
  C:46E8H         LINE#         153
  C:46EAH         LINE#         154
  -------         ENDPROC       _MODRTU_WRADDR
  -------         PROC          _MODRTU_WRBAUD
  D:0001H         SYMBOL        buf
  -------         DO            
  D:0006H         SYMBOL        temp
  -------         ENDDO         
  C:4732H         LINE#         162
  C:4732H         LINE#         163
  C:4732H         LINE#         166
  C:4735H         LINE#         167
  C:4736H         LINE#         168
  C:473AH         LINE#         169
  C:474CH         LINE#         170
  C:4751H         LINE#         171
  C:4753H         LINE#         172
  -------         ENDPROC       _MODRTU_WRBAUD
BL51 BANKED LINKER/LOCATER V6.22                                                      06/25/2018  15:28:32  PAGE 49


  -------         PROC          _MODRTU_WRVAL
  D:0031H         SYMBOL        addr
  D:0033H         SYMBOL        buf
  D:0036H         SYMBOL        excode
  -------         DO            
  X:094EH         SYMBOL        vol32u
  X:0952H         SYMBOL        vol8u
  X:095BH         SYMBOL        volf
  X:095FH         SYMBOL        pc_data
  X:0961H         SYMBOL        vol16s
  -------         ENDDO         
  C:1612H         LINE#         181
  C:161CH         LINE#         182
  C:161CH         LINE#         189
  C:162AH         LINE#         190
  C:16A6H         LINE#         191
  C:16A6H         LINE#         192
  C:16AFH         LINE#         193
  C:16AFH         LINE#         194
  C:16B1H         LINE#         195
  C:16BAH         LINE#         196
  C:16BAH         LINE#         197
  C:16BCH         LINE#         198
  C:16C2H         LINE#         199
  C:16C8H         LINE#         200
  C:16CBH         LINE#         201
  C:16CBH         LINE#         202
  C:16CBH         LINE#         203
  C:16D1H         LINE#         204
  C:16D1H         LINE#         205
  C:16D1H         LINE#         206
  C:16D7H         LINE#         208
  C:16D7H         LINE#         209
  C:16D7H         LINE#         211
  C:16D7H         LINE#         212
  C:16D7H         LINE#         213
  C:16EDH         LINE#         214
  C:16F6H         LINE#         215
  C:16F6H         LINE#         216
  C:16F9H         LINE#         217
  C:16FBH         LINE#         218
  C:170FH         LINE#         219
  C:170FH         LINE#         220
  C:1716H         LINE#         221
  C:1716H         LINE#         222
  C:1719H         LINE#         223
  C:1719H         LINE#         224
  C:1719H         LINE#         225
  C:172FH         LINE#         226
  C:1738H         LINE#         227
  C:1738H         LINE#         228
  C:1738H         LINE#         229
  C:173BH         LINE#         230
  C:174FH         LINE#         231
  C:174FH         LINE#         232
  C:1753H         LINE#         233
  C:1753H         LINE#         234
BL51 BANKED LINKER/LOCATER V6.22                                                      06/25/2018  15:28:32  PAGE 50


  C:1756H         LINE#         235
  C:1756H         LINE#         236
  C:1756H         LINE#         237
  C:1756H         LINE#         238
  C:1756H         LINE#         239
  C:1756H         LINE#         240
  C:1759H         LINE#         241
  C:1759H         LINE#         242
  C:1759H         LINE#         243
  C:1759H         LINE#         244
  C:1759H         LINE#         245
  C:1759H         LINE#         247
  C:175CH         LINE#         248
  C:1763H         LINE#         249
  C:176DH         LINE#         250
  C:176DH         LINE#         251
  C:176DH         LINE#         252
  C:1777H         LINE#         253
  C:1777H         LINE#         254
  C:177AH         LINE#         255
  C:177AH         LINE#         256
  C:177DH         LINE#         259
  C:177DH         LINE#         260
  C:177DH         LINE#         261
  C:177DH         LINE#         262
  C:177DH         LINE#         263
  C:177DH         LINE#         264
  C:177DH         LINE#         265
  C:177DH         LINE#         266
  C:177DH         LINE#         267
  C:177DH         LINE#         268
  C:1799H         LINE#         269
  C:17A9H         LINE#         270
  C:17ACH         LINE#         271
  C:17ACH         LINE#         272
  C:17ACH         LINE#         273
  C:17B6H         LINE#         274
  C:17C4H         LINE#         275
  C:17CCH         LINE#         276
  C:17ECH         LINE#         277
  C:17ECH         LINE#         278
  C:17F0H         LINE#         279
  C:17F4H         LINE#         280
  C:17F8H         LINE#         281
  C:17FCH         LINE#         282
  C:1800H         LINE#         283
  C:1804H         LINE#         284
  C:180CH         LINE#         286
  C:180FH         LINE#         287
  C:180FH         LINE#         288
  C:180FH         LINE#         290
  C:180FH         LINE#         291
  C:180FH         LINE#         292
  C:182EH         LINE#         293
  C:183AH         LINE#         294
  C:184FH         LINE#         295
  C:184FH         LINE#         296
BL51 BANKED LINKER/LOCATER V6.22                                                      06/25/2018  15:28:32  PAGE 51


  C:185BH         LINE#         297
  C:185DH         LINE#         299
  C:185DH         LINE#         300
  C:1871H         LINE#         301
  C:1871H         LINE#         302
  C:1880H         LINE#         303
  C:1880H         LINE#         304
  C:1885H         LINE#         305
  C:1885H         LINE#         306
  C:1888H         LINE#         307
  C:1897H         LINE#         308
  C:1897H         LINE#         309
  C:18AEH         LINE#         310
  C:18D3H         LINE#         311
  C:18D3H         LINE#         312
  C:18DCH         LINE#         313
  C:18E3H         LINE#         314
  C:18EBH         LINE#         315
  C:18F3H         LINE#         316
  C:18FBH         LINE#         317
  C:1903H         LINE#         318
  C:190BH         LINE#         319
  C:1916H         LINE#         320
  C:1916H         LINE#         321
  C:1916H         LINE#         323
  C:1916H         LINE#         324
  C:1926H         LINE#         325
  C:1940H         LINE#         327
  C:1940H         LINE#         328
  C:1948H         LINE#         329
  C:1948H         LINE#         330
  C:1955H         LINE#         331
  C:1961H         LINE#         332
  C:1964H         LINE#         334
  C:1964H         LINE#         335
  C:1971H         LINE#         336
  C:197DH         LINE#         338
  C:197DH         LINE#         339
  C:1980H         LINE#         340
  C:1980H         LINE#         341
  C:1980H         LINE#         342
  C:1989H         LINE#         343
  C:1995H         LINE#         344
  C:1995H         LINE#         345
  C:1998H         LINE#         346
  C:1998H         LINE#         347
  C:199BH         LINE#         348
  C:199BH         LINE#         349
  C:199BH         LINE#         350
  C:19A4H         LINE#         351
  C:19BDH         LINE#         352
  C:19BDH         LINE#         353
  C:19C3H         LINE#         354
  C:19C6H         LINE#         355
  C:19C8H         LINE#         356
  C:19CEH         LINE#         357
  C:19D4H         LINE#         358
BL51 BANKED LINKER/LOCATER V6.22                                                      06/25/2018  15:28:32  PAGE 52


  C:19D7H         LINE#         359
  C:19DDH         LINE#         360
  C:19E0H         LINE#         361
  C:19E2H         LINE#         362
  C:19E8H         LINE#         363
  C:19EEH         LINE#         364
  C:19F1H         LINE#         365
  C:19F1H         LINE#         366
  C:19F1H         LINE#         367
  C:19F1H         LINE#         368
  C:19F1H         LINE#         369
  C:1A07H         LINE#         370
  C:1A07H         LINE#         371
  C:1A0DH         LINE#         372
  C:1A10H         LINE#         373
  C:1A10H         LINE#         374
  C:1A10H         LINE#         375
  C:1A26H         LINE#         376
  C:1A26H         LINE#         377
  C:1A2CH         LINE#         378
  C:1A2EH         LINE#         379
  C:1A2EH         LINE#         380
  C:1A2EH         LINE#         381
  C:1A34H         LINE#         382
  C:1A38H         LINE#         383
  C:1A3AH         LINE#         384
  C:1A3AH         LINE#         385
  C:1A3AH         LINE#         386
  C:1A40H         LINE#         387
  C:1A43H         LINE#         388
  C:1A45H         LINE#         390
  C:1A45H         LINE#         391
  C:1A45H         LINE#         393
  C:1A50H         LINE#         394
  C:1A53H         LINE#         395
  C:1A53H         LINE#         396
  C:1A55H         LINE#         397
  -------         ENDPROC       _MODRTU_WRVAL
  -------         PROC          _MODRTU_RD16U
  D:0001H         SYMBOL        buf
  D:0004H         SYMBOL        dat
  C:4A66H         LINE#         405
  C:4A66H         LINE#         406
  C:4A66H         LINE#         407
  C:4A6CH         LINE#         408
  -------         ENDPROC       _MODRTU_RD16U
  C:0FA7H         SYMBOL        L?0343
  C:0FB9H         SYMBOL        L?0344
  C:0FCBH         SYMBOL        L?0345
  C:0FDDH         SYMBOL        L?0346
  C:0FEFH         SYMBOL        L?0347
  C:1001H         SYMBOL        L?0348
  C:1013H         SYMBOL        L?0349
  C:1025H         SYMBOL        L?0350
  C:1037H         SYMBOL        L?0351
  C:1049H         SYMBOL        L?0352
  C:105BH         SYMBOL        L?0353
BL51 BANKED LINKER/LOCATER V6.22                                                      06/25/2018  15:28:32  PAGE 53


  C:1070H         SYMBOL        L?0358
  C:1082H         SYMBOL        L?0359
  C:1090H         SYMBOL        L?0363
  C:10A2H         SYMBOL        L?0366
  C:10B0H         SYMBOL        L?0369
  C:10C5H         SYMBOL        L?0370
  C:10D7H         SYMBOL        L?0371
  C:10E9H         SYMBOL        L?0391
  C:10F4H         SYMBOL        L?0397
  C:10FBH         SYMBOL        L?0398
  -------         PROC          _MODRTU_RDVAL
  D:0032H         SYMBOL        addr
  D:0034H         SYMBOL        buf
  D:0037H         SYMBOL        excode
  -------         DO            
  X:095BH         SYMBOL        pc_data
  X:095DH         SYMBOL        vol16s
  -------         ENDDO         
  C:0AD0H         LINE#         417
  C:0ADAH         LINE#         418
  C:0ADAH         LINE#         422
  C:0C82H         LINE#         423
  C:0C82H         LINE#         425
  C:0C87H         LINE#         426
  C:0C8CH         LINE#         428
  C:0C91H         LINE#         430
  C:0C96H         LINE#         431
  C:0CA8H         LINE#         432
  C:0CB3H         LINE#         433
  C:0CC6H         LINE#         435
  C:0CC6H         LINE#         436
  C:0CC6H         LINE#         437
  C:0CC9H         LINE#         438
  C:0CCCH         LINE#         439
  C:0CCFH         LINE#         440
  C:0CD2H         LINE#         441
  C:0CD5H         LINE#         442
  C:0CD8H         LINE#         443
  C:0CDBH         LINE#         444
  C:0CDEH         LINE#         445
  C:0CE0H         LINE#         446
  C:0CE2H         LINE#         447
  C:0CE5H         LINE#         448
  C:0CE8H         LINE#         449
  C:0CEBH         LINE#         450
  C:0CEEH         LINE#         451
  C:0CEEH         LINE#         452
  C:0CEEH         LINE#         453
  C:0CEEH         LINE#         454
  C:0CF1H         LINE#         455
  C:0CF4H         LINE#         456
  C:0CF7H         LINE#         457
  C:0CFAH         LINE#         458
  C:0CFDH         LINE#         459
  C:0D00H         LINE#         460
  C:0D03H         LINE#         461
  C:0D06H         LINE#         462
BL51 BANKED LINKER/LOCATER V6.22                                                      06/25/2018  15:28:32  PAGE 54


  C:0D09H         LINE#         463
  C:0D0FH         LINE#         466
  C:0D17H         LINE#         467
  C:0D1DH         LINE#         469
  C:0D26H         LINE#         470
  C:0D2CH         LINE#         471
  C:0D35H         LINE#         472
  C:0D3EH         LINE#         473
  C:0D49H         LINE#         474
  C:0D56H         LINE#         475
  C:0D63H         LINE#         477
  C:0D6CH         LINE#         478
  C:0D75H         LINE#         479
  C:0D7EH         LINE#         480
  C:0D89H         LINE#         481
  C:0D95H         LINE#         482
  C:0DA1H         LINE#         484
  C:0DAAH         LINE#         485
  C:0DAFH         LINE#         486
  C:0DB4H         LINE#         487
  C:0DB9H         LINE#         488
  C:0DBEH         LINE#         489
  C:0DC3H         LINE#         490
  C:0DC8H         LINE#         491
  C:0DCDH         LINE#         492
  C:0DE1H         LINE#         493
  C:0DEBH         LINE#         494
  C:0DF5H         LINE#         495
  C:0DFEH         LINE#         496
  C:0E07H         LINE#         497
  C:0E10H         LINE#         498
  C:0E19H         LINE#         499
  C:0E22H         LINE#         500
  C:0E2BH         LINE#         501
  C:0E34H         LINE#         502
  C:0E3DH         LINE#         503
  C:0E46H         LINE#         504
  C:0E4FH         LINE#         505
  C:0E58H         LINE#         506
  C:0E61H         LINE#         507
  C:0E6AH         LINE#         508
  C:0E73H         LINE#         509
  C:0E7CH         LINE#         510
  C:0E85H         LINE#         511
  C:0E8EH         LINE#         512
  C:0E97H         LINE#         513
  C:0EA0H         LINE#         514
  C:0EA9H         LINE#         515
  C:0EB2H         LINE#         516
  C:0EBBH         LINE#         517
  C:0EC4H         LINE#         518
  C:0ECDH         LINE#         519
  C:0ED6H         LINE#         520
  C:0EDFH         LINE#         521
  C:0EE8H         LINE#         522
  C:0EF1H         LINE#         523
  C:0F00H         LINE#         524
BL51 BANKED LINKER/LOCATER V6.22                                                      06/25/2018  15:28:32  PAGE 55


  C:0F0FH         LINE#         526
  C:0F0FH         LINE#         528
  C:0F1BH         LINE#         529
  C:0F27H         LINE#         530
  C:0F33H         LINE#         531
  C:0F3FH         LINE#         532
  C:0F41H         LINE#         533
  C:0F41H         LINE#         534
  C:0F4EH         LINE#         535
  C:0F59H         LINE#         536
  C:0F64H         LINE#         537
  C:0F71H         LINE#         538
  C:0F7AH         LINE#         539
  C:0F85H         LINE#         540
  C:0F85H         LINE#         541
  C:0F85H         LINE#         542
  C:0F90H         LINE#         543
  C:0F93H         LINE#         545
  C:0F93H         LINE#         546
  C:0FA4H         LINE#         547
  C:0FA6H         LINE#         548
  -------         ENDPROC       _MODRTU_RDVAL
  -------         PROC          _MODRTU_RDREG
  D:0025H         SYMBOL        buf
  -------         DO            
  D:0028H         SYMBOL        addr
  D:002AH         SYMBOL        i
  D:002CH         SYMBOL        j
  D:002EH         SYMBOL        crc
  D:0030H         SYMBOL        err_code
  D:0031H         SYMBOL        excode
  -------         ENDDO         
  C:2B3EH         LINE#         561
  C:2B44H         LINE#         562
  C:2B44H         LINE#         564
  C:2B49H         LINE#         565
  C:2B4BH         LINE#         567
  C:2B53H         LINE#         568
  C:2B65H         LINE#         569
  C:2B77H         LINE#         570
  C:2B87H         LINE#         571
  C:2B87H         LINE#         572
  C:2BB4H         LINE#         573
  C:2BB4H         LINE#         574
  C:2BB7H         LINE#         575
  C:2BB9H         LINE#         576
  C:2BB9H         LINE#         577
  C:2BC1H         LINE#         578
  C:2BCBH         LINE#         579
  C:2BD0H         LINE#         580
  C:2BD0H         LINE#         581
  C:2BD8H         LINE#         583
  C:2BD8H         LINE#         584
  C:2BE5H         LINE#         585
  C:2BF7H         LINE#         586
  C:2C00H         LINE#         587
  C:2C13H         LINE#         588
BL51 BANKED LINKER/LOCATER V6.22                                                      06/25/2018  15:28:32  PAGE 56


  C:2C1EH         LINE#         589
  C:2C21H         LINE#         590
  -------         ENDPROC       _MODRTU_RDREG
  -------         PROC          _MODRTU_WRREG
  D:0025H         SYMBOL        buf
  D:0028H         SYMBOL        n
  -------         DO            
  D:0029H         SYMBOL        addr
  D:002BH         SYMBOL        i
  D:002DH         SYMBOL        j
  D:0004H         SYMBOL        crc
  D:002FH         SYMBOL        err_code
  D:0030H         SYMBOL        excode
  -------         ENDDO         
  C:2A55H         LINE#         598
  C:2A5DH         LINE#         599
  C:2A5DH         LINE#         602
  C:2A60H         LINE#         604
  C:2A6EH         LINE#         605
  C:2A98H         LINE#         606
  C:2AA6H         LINE#         607
  C:2AB6H         LINE#         608
  C:2AB6H         LINE#         609
  C:2AE3H         LINE#         610
  C:2AE3H         LINE#         611
  C:2AE6H         LINE#         612
  C:2AE8H         LINE#         613
  C:2AE8H         LINE#         614
  C:2AF0H         LINE#         615
  C:2AFAH         LINE#         616
  C:2B02H         LINE#         617
  C:2B07H         LINE#         618
  C:2B07H         LINE#         619
  C:2B0CH         LINE#         621
  C:2B0CH         LINE#         622
  C:2B18H         LINE#         623
  C:2B26H         LINE#         624
  C:2B2EH         LINE#         625
  C:2B31H         LINE#         626
  C:2B38H         LINE#         627
  C:2B38H         LINE#         628
  C:2B3AH         LINE#         629
  C:2B3DH         LINE#         630
  C:2B3DH         LINE#         631
  -------         ENDPROC       _MODRTU_WRREG
  -------         PROC          _MODRTU_RLYERROR
  D:0032H         SYMBOL        buf
  D:0005H         SYMBOL        excode
  -------         DO            
  D:0004H         SYMBOL        crc
  -------         ENDDO         
  C:437EH         LINE#         650
  C:4384H         LINE#         651
  C:4384H         LINE#         653
  C:4393H         LINE#         654
  C:439AH         LINE#         655
  C:43A1H         LINE#         656
BL51 BANKED LINKER/LOCATER V6.22                                                      06/25/2018  15:28:32  PAGE 57


  C:43A8H         LINE#         657
  C:43AFH         LINE#         658
  C:43B4H         LINE#         659
  -------         ENDPROC       _MODRTU_RLYERROR
  -------         PROC          _MODRTU_RXPROC
  D:0021H         SYMBOL        buf
  D:0024H         SYMBOL        n
  C:44C4H         LINE#         668
  C:44CCH         LINE#         669
  C:44CCH         LINE#         670
  C:44D2H         LINE#         672
  C:44E0H         LINE#         673
  C:44E0H         LINE#         674
  C:44E3H         LINE#         675
  C:44E3H         LINE#         676
  C:44EBH         LINE#         677
  C:44EBH         LINE#         678
  C:44F3H         LINE#         679
  C:44F3H         LINE#         680
  C:44F3H         LINE#         681
  -------         ENDPROC       _MODRTU_RXPROC
  -------         ENDMOD        MODBUSRTU

  -------         MODULE        SEND
  C:0000H         SYMBOL        _ICE_DUMMY_
  C:1DD9H         PUBLIC        SendSpeed
  D:0090H         PUBLIC        P1
  D:00A0H         PUBLIC        P2
  X:08C9H         PUBLIC        Braud_Num
  D:00A7H         PUBLIC        SFRPAGE
  C:2C22H         PUBLIC        Send_TimeProc
  D:000EH         SYMBOL        px_ax
  D:0010H         SYMBOL        py_ax
  C:22B3H         SYMBOL        _Send_CDeal
  C:1FADH         SYMBOL        _Send_RDeal
  C:1102H         SYMBOL        _Send_SDeal
  C:3A13H         SYMBOL        _Send_UDeal
  C:3CD7H         SYMBOL        _Send_WDeal
  D:00ACH         PUBLIC        SBRL0
  C:1DEDH         PUBLIC        Braud
  C:3666H         SYMBOL        Com00C2
  C:3666H         SYMBOL        L?0195
  C:366CH         SYMBOL        L?0196
  C:3673H         SYMBOL        L?0205
  C:3673H         SYMBOL        L?0206
  C:367CH         SYMBOL        L?0207
  C:3682H         SYMBOL        L?0208
  C:3689H         SYMBOL        L?0212
  C:3692H         SYMBOL        L?0213
  C:3699H         SYMBOL        L?0215
  C:3699H         SYMBOL        L?0216
  C:36A2H         SYMBOL        L?0219
  C:36A2H         SYMBOL        L?0220
  C:36ABH         SYMBOL        L?0221
  C:36B7H         SYMBOL        L?0223
  C:36B7H         SYMBOL        L?0224
  C:36BEH         SYMBOL        L?0225
BL51 BANKED LINKER/LOCATER V6.22                                                      06/25/2018  15:28:32  PAGE 58


  C:36BEH         SYMBOL        L?0226
  C:36C5H         SYMBOL        L?0227
  C:36CFH         SYMBOL        L?0228
  C:36CFH         SYMBOL        L?0229
  -------         PROC          COM00C2
  -------         ENDPROC       COM00C2
  -------         PROC          SEND_TIMEPROC
  -------         DO            
  X:0801H         SYMBOL        rx_buf
  D:0008H         SYMBOL        ptr
  D:000BH         SYMBOL        i
  D:000CH         SYMBOL        err
  D:000DH         SYMBOL        cmd
  -------         ENDDO         
  C:2C22H         LINE#         39
  C:2C22H         LINE#         40
  C:2C22H         LINE#         47
  C:2C28H         LINE#         49
  C:2C2AH         LINE#         50
  C:2C33H         LINE#         51
  C:2C36H         LINE#         52
  C:2C36H         LINE#         53
  C:2C4CH         LINE#         54
  C:2C52H         LINE#         55
  C:2C52H         LINE#         56
  C:2C5BH         LINE#         57
  C:2C62H         LINE#         58
  C:2C62H         LINE#         60
  C:2C6BH         LINE#         61
  C:2C6BH         LINE#         62
  C:2C6BH         LINE#         63
  C:2C6DH         LINE#         66
  C:2C6DH         LINE#         68
  C:2C7DH         LINE#         69
  C:2C7DH         LINE#         71
  C:2C83H         LINE#         73
  C:2C83H         LINE#         75
  C:2CA2H         LINE#         76
  C:2CA2H         LINE#         78
  C:2CA8H         LINE#         79
  C:2CA8H         LINE#         80
  C:2CB2H         LINE#         81
  C:2CB3H         LINE#         84
  C:2CB3H         LINE#         85
  C:2CB9H         LINE#         86
  C:2CCFH         LINE#         87
  C:2CD4H         LINE#         88
  C:2CDAH         LINE#         89
  C:2CDAH         LINE#         90
  C:2CDFH         LINE#         91
  C:2CE5H         LINE#         92
  C:2CE5H         LINE#         93
  C:2CEBH         LINE#         94
  C:2CEBH         LINE#         95
  C:2CF1H         LINE#         96
  C:2CF1H         LINE#         97
  C:2CF8H         LINE#         98
BL51 BANKED LINKER/LOCATER V6.22                                                      06/25/2018  15:28:32  PAGE 59


  C:2CFEH         LINE#         99
  C:2CFEH         LINE#         103
  C:2CFEH         LINE#         104
  -------         ENDPROC       SEND_TIMEPROC
  C:20EBH         SYMBOL        L?0197
  C:20FCH         SYMBOL        L?0200
  C:210DH         SYMBOL        L?0201
  C:211EH         SYMBOL        L?0211
  C:212FH         SYMBOL        L?0214
  -------         PROC          _SEND_RDEAL
  D:0021H         SYMBOL        buf
  D:0024H         SYMBOL        n
  -------         DO            
  D:0025H         SYMBOL        data_8u
  -------         ENDDO         
  C:1FADH         LINE#         112
  C:1FB5H         LINE#         113
  C:1FB5H         LINE#         115
  C:1FC7H         LINE#         116
  C:1FD0H         LINE#         117
  C:1FD3H         LINE#         118
  C:1FD3H         LINE#         119
  C:1FEBH         LINE#         120
  C:1FF4H         LINE#         121
  C:1FF7H         LINE#         122
  C:1FF7H         LINE#         123
  C:2005H         LINE#         124
  C:200EH         LINE#         125
  C:2011H         LINE#         126
  C:2011H         LINE#         127
  C:201FH         LINE#         128
  C:2028H         LINE#         129
  C:202BH         LINE#         130
  C:202BH         LINE#         131
  C:2039H         LINE#         132
  C:2042H         LINE#         133
  C:2045H         LINE#         134
  C:2045H         LINE#         135
  C:2053H         LINE#         136
  C:205CH         LINE#         137
  C:205FH         LINE#         138
  C:205FH         LINE#         139
  C:206DH         LINE#         140
  C:2073H         LINE#         141
  C:207EH         LINE#         142
  C:2081H         LINE#         143
  C:2083H         LINE#         144
  C:2091H         LINE#         145
  C:2097H         LINE#         146
  C:20A2H         LINE#         147
  C:20A8H         LINE#         148
  C:20A8H         LINE#         149
  C:20B6H         LINE#         150
  C:20BCH         LINE#         151
  C:20BCH         LINE#         152
  C:20C3H         LINE#         153
  C:20C8H         LINE#         154
BL51 BANKED LINKER/LOCATER V6.22                                                      06/25/2018  15:28:32  PAGE 60


  C:20C8H         LINE#         155
  C:20D6H         LINE#         156
  C:20DBH         LINE#         157
  C:20DBH         LINE#         158
  C:20E2H         LINE#         159
  C:20E7H         LINE#         160
  C:20E7H         LINE#         161
  C:20EAH         LINE#         162
  -------         ENDPROC       _SEND_RDEAL
  C:23C3H         SYMBOL        L?0199
  C:23DAH         SYMBOL        L?0202
  C:23EBH         SYMBOL        L?0209
  -------         PROC          _SEND_CDEAL
  D:0021H         SYMBOL        buf
  D:0024H         SYMBOL        n
  C:22B3H         LINE#         170
  C:22BBH         LINE#         171
  C:22BBH         LINE#         172
  C:22D0H         LINE#         173
  C:22D9H         LINE#         174
  C:22DCH         LINE#         175
  C:22E2H         LINE#         176
  C:22E7H         LINE#         177
  C:22E7H         LINE#         178
  C:22EAH         LINE#         179
  C:22FFH         LINE#         180
  C:2308H         LINE#         181
  C:2310H         LINE#         182
  C:2313H         LINE#         183
  C:2319H         LINE#         184
  C:2319H         LINE#         185
  C:231CH         LINE#         188
  C:232AH         LINE#         189
  C:2333H         LINE#         190
  C:2339H         LINE#         191
  C:233EH         LINE#         192
  C:233EH         LINE#         193
  C:2341H         LINE#         194
  C:2341H         LINE#         195
  C:2344H         LINE#         196
  C:2356H         LINE#         197
  C:235CH         LINE#         198
  C:2362H         LINE#         199
  C:2362H         LINE#         200
  C:2362H         LINE#         201
  C:2365H         LINE#         202
  C:236BH         LINE#         204
  C:236BH         LINE#         205
  C:236BH         LINE#         206
  C:236EH         LINE#         207
  C:237CH         LINE#         208
  C:2382H         LINE#         209
  C:2388H         LINE#         210
  C:2390H         LINE#         211
  C:2393H         LINE#         212
  C:2393H         LINE#         213
  C:2393H         LINE#         214
BL51 BANKED LINKER/LOCATER V6.22                                                      06/25/2018  15:28:32  PAGE 61


  C:2395H         LINE#         215
  C:23A7H         LINE#         216
  C:23ADH         LINE#         217
  C:23B3H         LINE#         218
  C:23B3H         LINE#         219
  C:23B3H         LINE#         220
  C:23B9H         LINE#         221
  C:23BFH         LINE#         222
  C:23BFH         LINE#         223
  C:23C2H         LINE#         224
  C:23C2H         LINE#         226
  -------         ENDPROC       _SEND_CDEAL
  C:154BH         SYMBOL        L?0191
  C:1565H         SYMBOL        L?0192
  C:1576H         SYMBOL        L?0193
  C:1587H         SYMBOL        L?0198
  C:15A1H         SYMBOL        L?0203
  C:15B2H         SYMBOL        L?0204
  C:15C8H         SYMBOL        L?0210
  C:15E2H         SYMBOL        L?0217
  C:15EDH         SYMBOL        L?0218
  C:15FDH         SYMBOL        L?0222
  C:1608H         SYMBOL        L?0230
  -------         PROC          _SEND_SDEAL
  D:0021H         SYMBOL        buf
  D:0024H         SYMBOL        n
  -------         DO            
  D:0007H         SYMBOL        data_ram
  D:0025H         SYMBOL        data_8u
  D:0026H         SYMBOL        data_32s
  D:0007H         SYMBOL        i
  D:002AH         SYMBOL        SfrPage_
  -------         ENDDO         
  C:1102H         LINE#         234
  C:110AH         LINE#         235
  C:110AH         LINE#         238
  C:110DH         LINE#         240
  C:1122H         LINE#         241
  C:112BH         LINE#         242
  C:112FH         LINE#         243
  C:1132H         LINE#         244
  C:1138H         LINE#         245
  C:1139H         LINE#         246
  C:1151H         LINE#         247
  C:115AH         LINE#         248
  C:115EH         LINE#         249
  C:1161H         LINE#         250
  C:1166H         LINE#         251
  C:117DH         LINE#         252
  C:117DH         LINE#         253
  C:1180H         LINE#         254
  C:1180H         LINE#         255
  C:1181H         LINE#         256
  C:1198H         LINE#         257
  C:11A1H         LINE#         258
  C:11B7H         LINE#         259
  C:11B7H         LINE#         260
BL51 BANKED LINKER/LOCATER V6.22                                                      06/25/2018  15:28:32  PAGE 62


  C:11B7H         LINE#         261
  C:11CBH         LINE#         263
  C:11CBH         LINE#         264
  C:11D0H         LINE#         265
  C:11D5H         LINE#         266
  C:11D8H         LINE#         267
  C:11DAH         LINE#         269
  C:11DAH         LINE#         270
  C:11DDH         LINE#         271
  C:11DDH         LINE#         272
  C:11FAH         LINE#         273
  C:11FBH         LINE#         274
  C:120DH         LINE#         275
  C:1210H         LINE#         276
  C:1210H         LINE#         277
  C:1210H         LINE#         278
  C:1213H         LINE#         279
  C:1219H         LINE#         281
  C:1231H         LINE#         282
  C:123AH         LINE#         283
  C:124AH         LINE#         284
  C:125BH         LINE#         285
  C:1260H         LINE#         286
  C:1265H         LINE#         287
  C:1265H         LINE#         288
  C:1268H         LINE#         289
  C:1280H         LINE#         290
  C:1289H         LINE#         291
  C:128FH         LINE#         292
  C:1295H         LINE#         293
  C:129AH         LINE#         294
  C:129AH         LINE#         295
  C:129DH         LINE#         296
  C:12ABH         LINE#         297
  C:12B4H         LINE#         298
  C:12BAH         LINE#         299
  C:12C0H         LINE#         300
  C:12C5H         LINE#         301
  C:12C5H         LINE#         302
  C:12C8H         LINE#         303
  C:12D6H         LINE#         304
  C:12DFH         LINE#         305
  C:12E7H         LINE#         306
  C:12EAH         LINE#         307
  C:12EAH         LINE#         308
  C:12F0H         LINE#         309
  C:12F0H         LINE#         310
  C:12FEH         LINE#         311
  C:1307H         LINE#         312
  C:130FH         LINE#         313
  C:1312H         LINE#         314
  C:1312H         LINE#         315
  C:1318H         LINE#         316
  C:1318H         LINE#         317
  C:1330H         LINE#         318
  C:1339H         LINE#         319
  C:1347H         LINE#         320
BL51 BANKED LINKER/LOCATER V6.22                                                      06/25/2018  15:28:32  PAGE 63


  C:1359H         LINE#         321
  C:135CH         LINE#         322
  C:1364H         LINE#         323
  C:1364H         LINE#         324
  C:1367H         LINE#         325
  C:1379H         LINE#         326
  C:1382H         LINE#         327
  C:138AH         LINE#         328
  C:139AH         LINE#         329
  C:139AH         LINE#         330
  C:139DH         LINE#         331
  C:13A3H         LINE#         332
  C:13A3H         LINE#         333
  C:13A6H         LINE#         334
  C:13A6H         LINE#         335
  C:13A9H         LINE#         336
  C:13C1H         LINE#         337
  C:13CAH         LINE#         338
  C:13D2H         LINE#         339
  C:13FCH         LINE#         341
  C:13FFH         LINE#         343
  C:13FFH         LINE#         344
  C:1402H         LINE#         345
  C:1405H         LINE#         346
  C:1408H         LINE#         347
  C:1408H         LINE#         348
  C:1410H         LINE#         349
  C:1416H         LINE#         350
  C:1419H         LINE#         351
  C:1419H         LINE#         352
  C:142BH         LINE#         353
  C:1434H         LINE#         354
  C:143CH         LINE#         355
  C:144CH         LINE#         356
  C:144CH         LINE#         357
  C:144FH         LINE#         358
  C:1455H         LINE#         359
  C:1458H         LINE#         360
  C:1458H         LINE#         361
  C:1458H         LINE#         362
  C:145BH         LINE#         363
  C:1473H         LINE#         364
  C:147CH         LINE#         365
  C:1483H         LINE#         366
  C:14B3H         LINE#         368
  C:14B6H         LINE#         370
  C:14B6H         LINE#         371
  C:14B9H         LINE#         372
  C:14BCH         LINE#         373
  C:14BFH         LINE#         375
  C:14BFH         LINE#         376
  C:14C7H         LINE#         377
  C:14CDH         LINE#         378
  C:14D0H         LINE#         379
  C:14D0H         LINE#         380
  C:14E8H         LINE#         381
  C:14E8H         LINE#         382
BL51 BANKED LINKER/LOCATER V6.22                                                      06/25/2018  15:28:32  PAGE 64


  C:14EEH         LINE#         383
  C:14FBH         LINE#         384
  C:1500H         LINE#         385
  C:1506H         LINE#         386
  C:150BH         LINE#         387
  C:150EH         LINE#         388
  C:1515H         LINE#         389
  C:1518H         LINE#         390
  C:1547H         LINE#         391
  C:154AH         LINE#         392
  C:154AH         LINE#         394
  -------         ENDPROC       _SEND_SDEAL
  -------         PROC          _SEND_WDEAL
  D:0021H         SYMBOL        buf
  D:0024H         SYMBOL        n
  C:3CD7H         LINE#         402
  C:3CDFH         LINE#         403
  C:3CDFH         LINE#         404
  C:3CF4H         LINE#         405
  C:3CFAH         LINE#         406
  C:3CFDH         LINE#         408
  C:3CFDH         LINE#         409
  C:3D1BH         LINE#         410
  C:3D26H         LINE#         411
  C:3D29H         LINE#         412
  C:3D29H         LINE#         413
  -------         ENDPROC       _SEND_WDEAL
  -------         PROC          _SEND_UDEAL
  D:0021H         SYMBOL        buf
  D:0024H         SYMBOL        n
  C:3A13H         LINE#         421
  C:3A1BH         LINE#         422
  C:3A1BH         LINE#         423
  C:3A30H         LINE#         424
  C:3A30H         LINE#         426
  C:3A36H         LINE#         427
  C:3A39H         LINE#         428
  C:3A3EH         LINE#         429
  C:3A3EH         LINE#         431
  C:3A40H         LINE#         432
  C:3A58H         LINE#         433
  C:3A58H         LINE#         434
  C:3A5DH         LINE#         435
  C:3A60H         LINE#         436
  C:3A68H         LINE#         437
  C:3A6BH         LINE#         438
  C:3A6BH         LINE#         440
  C:3A6EH         LINE#         441
  -------         ENDPROC       _SEND_UDEAL
  -------         ENDMOD        SEND

  -------         MODULE        SENSOR
  C:0000H         SYMBOL        _ICE_DUMMY_
  D:0090H         PUBLIC        P1
  D:00A0H         PUBLIC        P2
  C:4A02H         PUBLIC        _SnXFilter
  C:4A11H         PUBLIC        _SnYFilter
BL51 BANKED LINKER/LOCATER V6.22                                                      06/25/2018  15:28:32  PAGE 65


  D:00E8H         PUBLIC        ADC0CN
  C:4B38H         PUBLIC        GetXAng
  C:4B3FH         PUBLIC        GetYAng
  C:350DH         SYMBOL        _SnFilter
  C:49E4H         PUBLIC        SnXDataInit
  C:49F3H         PUBLIC        SnYDataInit
  C:4BC2H         PUBLIC        GetFilterCnt
  C:3EFBH         SYMBOL        _Sn_DataInit
  C:4BC8H         PUBLIC        _SetFilterCnt
  C:4C02H         PUBLIC        Get_McuTemp
  X:0909H         SYMBOL        filtercnt
  X:090AH         PUBLIC        accel_x
  C:3745H         SYMBOL        _GetAngCalcVal
  X:0922H         PUBLIC        accel_y
  C:40DDH         PUBLIC        SnProc
  C:3ACAH         PUBLIC        SnInit
  C:4AEAH         PUBLIC        GetXFtVal
  C:4AF3H         PUBLIC        GetYFtVal
  C:4BB6H         PUBLIC        AngXCalc
  C:4BBCH         PUBLIC        AngYCalc
  C:37B2H         SYMBOL        _Ang_Calc
  C:38EFH         SYMBOL        Com0025
  C:38EFH         SYMBOL        L?0038
  C:38EFH         SYMBOL        L?0039
  C:38FBH         SYMBOL        L?0040
  C:390BH         SYMBOL        L?0041
  C:390BH         SYMBOL        L?0042
  C:3915H         SYMBOL        L?0043
  C:3915H         SYMBOL        L?0044
  C:391EH         SYMBOL        L?0045
  C:391EH         SYMBOL        L?0046
  C:3925H         SYMBOL        L?0047
  C:3930H         SYMBOL        L?0048
  C:393BH         SYMBOL        L?0049
  C:393BH         SYMBOL        L?0050
  C:3942H         SYMBOL        L?0051
  C:3942H         SYMBOL        L?0052
  C:3949H         SYMBOL        L?0053
  -------         PROC          COM0025
  -------         ENDPROC       COM0025
  -------         PROC          _SN_DATAINIT
  D:0021H         SYMBOL        p_sn
  D:0024H         SYMBOL        p_angcal
  C:3EFBH         LINE#         31
  C:3F01H         LINE#         32
  C:3F01H         LINE#         33
  C:3F07H         LINE#         34
  C:3F16H         LINE#         35
  C:3F20H         LINE#         36
  C:3F2AH         LINE#         37
  C:3F42H         LINE#         38
  -------         ENDPROC       _SN_DATAINIT
  -------         PROC          _SNFILTER
  D:0021H         SYMBOL        p_sn
  D:0024H         SYMBOL        val
  D:0026H         SYMBOL        ftcnt
  C:350DH         LINE#         47
BL51 BANKED LINKER/LOCATER V6.22                                                      06/25/2018  15:28:32  PAGE 66


  C:3517H         LINE#         48
  C:3517H         LINE#         49
  C:352DH         LINE#         50
  C:352DH         LINE#         51
  C:3548H         LINE#         53
  C:3563H         LINE#         55
  C:3565H         LINE#         57
  C:3570H         LINE#         58
  -------         ENDPROC       _SNFILTER
  -------         PROC          _GETANGCALCVAL
  D:0028H         SYMBOL        p_sn
  D:002BH         SYMBOL        val
  -------         DO            
  D:002DH         SYMBOL        i
  D:0004H         SYMBOL        tmp
  -------         ENDDO         
  C:3745H         LINE#         70
  C:374FH         LINE#         71
  C:374FH         LINE#         75
  C:3761H         LINE#         76
  C:3761H         LINE#         77
  C:377DH         LINE#         78
  C:377DH         LINE#         79
  C:3781H         LINE#         80
  C:37B1H         LINE#         81
  C:37B1H         LINE#         82
  -------         ENDPROC       _GETANGCALCVAL
  -------         PROC          _ANG_CALC
  D:0021H         SYMBOL        p_sn
  -------         DO            
  D:0024H         SYMBOL        ang
  -------         ENDDO         
  C:37B2H         LINE#         91
  C:37B8H         LINE#         92
  C:37B8H         LINE#         94
  C:37C7H         LINE#         95
  C:37CEH         LINE#         96
  C:37D9H         LINE#         97
  C:37E2H         LINE#         98
  C:37EDH         LINE#         100
  C:37EDH         LINE#         101
  C:37FBH         LINE#         102
  C:3814H         LINE#         103
  C:381DH         LINE#         104
  C:381DH         LINE#         105
  -------         ENDPROC       _ANG_CALC
  -------         PROC          SNXDATAINIT
  C:49E4H         LINE#         111
  C:49E4H         LINE#         112
  C:49E4H         LINE#         113
  -------         ENDPROC       SNXDATAINIT
  -------         PROC          SNYDATAINIT
  C:49F3H         LINE#         115
  C:49F3H         LINE#         116
  C:49F3H         LINE#         117
  -------         ENDPROC       SNYDATAINIT
  -------         PROC          _SNXFILTER
BL51 BANKED LINKER/LOCATER V6.22                                                      06/25/2018  15:28:32  PAGE 67


  D:0006H         SYMBOL        val
  D:0082H         SYMBOL        ftcnt
  C:4A02H         LINE#         119
  C:4A04H         LINE#         120
  C:4A04H         LINE#         121
  -------         ENDPROC       _SNXFILTER
  -------         PROC          _SNYFILTER
  D:0006H         SYMBOL        val
  D:0082H         SYMBOL        ftcnt
  C:4A11H         LINE#         123
  C:4A13H         LINE#         124
  C:4A13H         LINE#         125
  -------         ENDPROC       _SNYFILTER
  -------         PROC          ANGXCALC
  C:4BB6H         LINE#         128
  C:4BB6H         LINE#         129
  C:4BB6H         LINE#         130
  -------         ENDPROC       ANGXCALC
  -------         PROC          ANGYCALC
  C:4BBCH         LINE#         132
  C:4BBCH         LINE#         133
  C:4BBCH         LINE#         134
  -------         ENDPROC       ANGYCALC
  -------         PROC          SNINIT
  C:3ACAH         LINE#         143
  C:3ACAH         LINE#         144
  C:3ACAH         LINE#         145
  C:3ACDH         LINE#         146
  C:3AD2H         LINE#         147
  C:3ADEH         LINE#         148
  C:3AE8H         LINE#         149
  C:3AF2H         LINE#         150
  C:3AFBH         LINE#         152
  C:3B07H         LINE#         153
  C:3B11H         LINE#         154
  C:3B1BH         LINE#         155
  -------         ENDPROC       SNINIT
  -------         PROC          SNPROC
  C:40DDH         LINE#         165
  C:40DDH         LINE#         166
  C:40DDH         LINE#         167
  C:40DDH         LINE#         168
  C:40E2H         LINE#         170
  C:40E6H         LINE#         172
  C:40EFH         LINE#         173
  C:40EFH         LINE#         174
  C:40EFH         LINE#         175
  C:40F5H         LINE#         176
  C:40FEH         LINE#         179
  C:4101H         LINE#         180
  C:4103H         LINE#         182
  C:4103H         LINE#         183
  C:4109H         LINE#         184
  C:4112H         LINE#         187
  C:411BH         LINE#         188
  C:411BH         LINE#         189
  C:411BH         LINE#         190
BL51 BANKED LINKER/LOCATER V6.22                                                      06/25/2018  15:28:32  PAGE 68


  C:411BH         LINE#         191
  C:411EH         LINE#         192
  C:411EH         LINE#         193
  -------         ENDPROC       SNPROC
  -------         PROC          GETFILTERCNT
  C:4BC2H         LINE#         202
  C:4BC2H         LINE#         203
  C:4BC2H         LINE#         204
  C:4BC7H         LINE#         205
  -------         ENDPROC       GETFILTERCNT
  -------         PROC          _SETFILTERCNT
  D:0007H         SYMBOL        cnt
  C:4BC8H         LINE#         213
  C:4BC8H         LINE#         214
  C:4BC8H         LINE#         215
  C:4BCDH         LINE#         216
  -------         ENDPROC       _SETFILTERCNT
  -------         PROC          GET_MCUTEMP
  C:4C02H         LINE#         225
  C:4C02H         LINE#         226
  C:4C02H         LINE#         228
  C:4C05H         LINE#         229
  -------         ENDPROC       GET_MCUTEMP
  -------         PROC          GETXFTVAL
  C:4AEAH         LINE#         238
  C:4AEAH         LINE#         239
  C:4AEAH         LINE#         240
  C:4AF2H         LINE#         241
  -------         ENDPROC       GETXFTVAL
  -------         PROC          GETYFTVAL
  C:4AF3H         LINE#         250
  C:4AF3H         LINE#         251
  C:4AF3H         LINE#         252
  C:4AFBH         LINE#         253
  -------         ENDPROC       GETYFTVAL
  -------         PROC          GETXANG
  C:4B38H         LINE#         286
  C:4B38H         LINE#         287
  C:4B38H         LINE#         288
  C:4B3EH         LINE#         289
  -------         ENDPROC       GETXANG
  -------         PROC          GETYANG
  C:4B3FH         LINE#         298
  C:4B3FH         LINE#         299
  C:4B3FH         LINE#         300
  C:4B45H         LINE#         301
  -------         ENDPROC       GETYANG
  -------         ENDMOD        SENSOR

  -------         MODULE        SUB
  C:0000H         SYMBOL        _ICE_DUMMY_
  C:2DDAH         PUBLIC        _Sub_Int32s2Str
  C:23F7H         PUBLIC        _Sub_Str2Int32s
  D:0090H         PUBLIC        P1
  C:4754H         PUBLIC        _Sub_Int16s2Str
  D:00A0H         PUBLIC        P2
  C:4AFCH         PUBLIC        _Sub_SendOffset
BL51 BANKED LINKER/LOCATER V6.22                                                      06/25/2018  15:28:32  PAGE 69


  C:3581H         PUBLIC        _Sub_Int16u2Str
  C:49C5H         PUBLIC        _Comm_PutInt8u
  C:002EH         PUBLIC        Sub_SendSysNum
  C:3B24H         PUBLIC        _Sub_SendAngXCal
  C:3F43H         PUBLIC        _Sub_SendAngYCal
  C:43F0H         PUBLIC        Sub_SendID
  C:4A3CH         PUBLIC        _Comm_PutInt32s
  C:4A4AH         PUBLIC        _Comm_PutInt16s
  C:43B7H         PUBLIC        Sub_SendAngXYP
  C:4A58H         PUBLIC        _Comm_PutInt16u
  C:49A3H         PUBLIC        Sub_SendErr
  C:4992H         PUBLIC        Sub_SendOk
  C:0003H         PUBLIC        _Sub_Int8u2Str
  C:445DH         PUBLIC        _Sub_Str2Int8u
  C:3DCEH         PUBLIC        Sub_SendPrmtAll
  C:4AAAH         PUBLIC        Comm_PutNewLine
  C:4629H         PUBLIC        Sub_SendAngXY
  C:49B4H         PUBLIC        Sub_SendSoftVer
  C:421BH         PUBLIC        _Sub_SBufSwitch
  C:415FH         PUBLIC        _Sub_UBufSwitch
  C:3953H         PUBLIC        _Sub_BufBubble
  C:2F55H         SYMBOL        Com003B
  C:2F55H         SYMBOL        L?0060
  C:2F5AH         SYMBOL        L?0061
  C:2F5DH         SYMBOL        L?0062
  C:2F71H         SYMBOL        L?0063
  C:2F7AH         SYMBOL        L?0064
  C:2F87H         SYMBOL        L?0065
  C:2F90H         SYMBOL        L?0066
  C:2F9AH         SYMBOL        L?0067
  C:2F9EH         SYMBOL        L?0068
  C:2FA0H         SYMBOL        L?0069
  C:2FA7H         SYMBOL        L?0070
  C:2FADH         SYMBOL        L?0071
  C:2FB8H         SYMBOL        L?0072
  C:2FBAH         SYMBOL        L?0073
  C:2FBDH         SYMBOL        L?0074
  C:2FC4H         SYMBOL        L?0075
  C:2FC6H         SYMBOL        L?0076
  C:2FCFH         SYMBOL        L?0077
  C:2FD3H         SYMBOL        L?0078
  C:2FDAH         SYMBOL        L?0080
  C:2FDDH         SYMBOL        L?0081
  C:2FE5H         SYMBOL        L?0082
  C:2FF1H         SYMBOL        L?0083
  C:2FF5H         SYMBOL        L?0084
  C:2FFCH         SYMBOL        L?0085
  C:2FFCH         SYMBOL        L?0086
  -------         PROC          COM003B
  -------         ENDPROC       COM003B
  -------         PROC          _COMM_PUTINT32S
  D:0004H         SYMBOL        val
  C:4A3CH         LINE#         26
  C:4A3CH         LINE#         27
  C:4A3CH         LINE#         28
  C:4A42H         LINE#         29
  -------         ENDPROC       _COMM_PUTINT32S
BL51 BANKED LINKER/LOCATER V6.22                                                      06/25/2018  15:28:32  PAGE 70


  -------         PROC          _COMM_PUTINT16S
  D:0004H         SYMBOL        val
  C:4A4AH         LINE#         39
  C:4A4AH         LINE#         40
  C:4A4AH         LINE#         41
  C:4A50H         LINE#         42
  -------         ENDPROC       _COMM_PUTINT16S
  -------         PROC          _COMM_PUTINT16U
  D:0004H         SYMBOL        val
  C:4A58H         LINE#         51
  C:4A58H         LINE#         52
  C:4A58H         LINE#         53
  C:4A5EH         LINE#         54
  -------         ENDPROC       _COMM_PUTINT16U
  -------         PROC          _COMM_PUTINT8U
  D:0005H         SYMBOL        val
  C:49C5H         LINE#         63
  C:49C7H         LINE#         64
  C:49C7H         LINE#         65
  C:49CDH         LINE#         66
  -------         ENDPROC       _COMM_PUTINT8U
  -------         PROC          COMM_PUTNEWLINE
  C:4AAAH         LINE#         76
  C:4AAAH         LINE#         77
  C:4AAAH         LINE#         78
  C:4AAFH         LINE#         79
  -------         ENDPROC       COMM_PUTNEWLINE
  -------         PROC          SUB_SENDOK
  -------         DO            
  D:0001H         SYMBOL        str
  -------         ENDDO         
  C:4992H         LINE#         88
  C:4992H         LINE#         89
  C:4992H         LINE#         90
  C:4998H         LINE#         91
  C:499DH         LINE#         92
  C:49A0H         LINE#         93
  -------         ENDPROC       SUB_SENDOK
  -------         PROC          SUB_SENDERR
  -------         DO            
  D:0001H         SYMBOL        str
  -------         ENDDO         
  C:49A3H         LINE#         100
  C:49A3H         LINE#         101
  C:49A9H         LINE#         104
  C:49AEH         LINE#         105
  C:49B1H         LINE#         106
  -------         ENDPROC       SUB_SENDERR
  -------         PROC          SUB_SENDANGXY
  C:4629H         LINE#         109
  C:4629H         LINE#         110
  C:4629H         LINE#         111
  C:4634H         LINE#         112
  C:463AH         LINE#         115
  C:4645H         LINE#         116
  C:464BH         LINE#         118
  C:464EH         LINE#         120
BL51 BANKED LINKER/LOCATER V6.22                                                      06/25/2018  15:28:32  PAGE 71


  -------         ENDPROC       SUB_SENDANGXY
  -------         PROC          SUB_SENDANGXYP
  C:43B7H         LINE#         123
  C:43B7H         LINE#         124
  C:43B7H         LINE#         125
  C:43C2H         LINE#         126
  C:43C8H         LINE#         129
  C:43D3H         LINE#         130
  C:43D9H         LINE#         133
  C:43E4H         LINE#         134
  C:43EAH         LINE#         135
  C:43EDH         LINE#         137
  -------         ENDPROC       SUB_SENDANGXYP
  -------         PROC          SUB_SENDPRMTALL
  C:3DCEH         LINE#         140
  C:3DCEH         LINE#         141
  C:3DCEH         LINE#         142
  C:3DDFH         LINE#         144
  C:3DF0H         LINE#         146
  C:3DFBH         LINE#         148
  C:3E0CH         LINE#         150
  C:3E17H         LINE#         155
  C:3E1AH         LINE#         156
  -------         ENDPROC       SUB_SENDPRMTALL
  -------         PROC          _SUB_SENDANGXCAL
  D:0026H         SYMBOL        i
  C:3B24H         LINE#         159
  C:3B26H         LINE#         160
  C:3B26H         LINE#         161
  C:3B36H         LINE#         162
  C:3B49H         LINE#         164
  C:3B5FH         LINE#         165
  C:3B78H         LINE#         167
  C:3B7BH         LINE#         168
  -------         ENDPROC       _SUB_SENDANGXCAL
  -------         PROC          _SUB_SENDANGYCAL
  D:0026H         SYMBOL        i
  C:3F43H         LINE#         171
  C:3F45H         LINE#         172
  C:3F45H         LINE#         173
  C:3F55H         LINE#         174
  C:3F62H         LINE#         175
  C:3F73H         LINE#         176
  C:3F84H         LINE#         178
  C:3F87H         LINE#         179
  -------         ENDPROC       _SUB_SENDANGYCAL
  -------         PROC          _SUB_SENDOFFSET
  D:0004H         SYMBOL        val
  C:4AFCH         LINE#         199
  C:4AFCH         LINE#         200
  C:4AFCH         LINE#         201
  C:4AFFH         LINE#         202
  C:4B02H         LINE#         203
  -------         ENDPROC       _SUB_SENDOFFSET
  C:4410H         SYMBOL        L?0079
  C:441DH         SYMBOL        L?0087
  -------         PROC          SUB_SENDID
BL51 BANKED LINKER/LOCATER V6.22                                                      06/25/2018  15:28:32  PAGE 72


  C:43F0H         LINE#         206
  C:43F0H         LINE#         207
  C:43F0H         LINE#         208
  C:43F6H         LINE#         209
  C:43FCH         LINE#         210
  C:4402H         LINE#         211
  C:440AH         LINE#         213
  C:440DH         LINE#         214
  C:4410H         LINE#         215
  -------         ENDPROC       SUB_SENDID
  -------         PROC          SUB_SENDSOFTVER
  C:49B4H         LINE#         217
  C:49B4H         LINE#         218
  C:49B4H         LINE#         219
  C:49BFH         LINE#         220
  C:49C2H         LINE#         221
  -------         ENDPROC       SUB_SENDSOFTVER
  -------         PROC          SUB_SENDSYSNUM
  C:002EH         LINE#         224
  C:002EH         LINE#         225
  C:002EH         LINE#         226
  C:0039H         LINE#         227
  C:0044H         LINE#         228
  C:0047H         LINE#         229
  -------         ENDPROC       SUB_SENDSYSNUM
  -------         PROC          _SUB_STR2INT32S
  D:002BH         SYMBOL        val
  D:002EH         SYMBOL        str
  -------         DO            
  D:0031H         SYMBOL        temp
  -------         ENDDO         
  C:23F7H         LINE#         255
  C:23FDH         LINE#         256
  C:23FDH         LINE#         259
  C:240EH         LINE#         260
  C:241FH         LINE#         261
  C:242CH         LINE#         262
  C:243DH         LINE#         263
  C:244EH         LINE#         264
  C:245FH         LINE#         265
  C:2502H         LINE#         266
  C:250BH         LINE#         267
  C:250BH         LINE#         268
  C:250DH         LINE#         269
  C:250DH         LINE#         270
  C:2516H         LINE#         271
  C:252AH         LINE#         272
  C:252DH         LINE#         273
  C:252DH         LINE#         274
  C:252FH         LINE#         275
  -------         ENDPROC       _SUB_STR2INT32S
  -------         PROC          _SUB_STR2INT8U
  D:0001H         SYMBOL        str
  -------         DO            
  D:0007H         SYMBOL        val
  -------         ENDDO         
  C:445DH         LINE#         304
BL51 BANKED LINKER/LOCATER V6.22                                                      06/25/2018  15:28:32  PAGE 73


  C:445DH         LINE#         305
  C:445DH         LINE#         307
  C:446FH         LINE#         308
  C:447DH         LINE#         309
  C:4491H         LINE#         310
  C:4491H         LINE#         311
  -------         ENDPROC       _SUB_STR2INT8U
  -------         PROC          _SUB_INT32S2STR
  D:002BH         SYMBOL        s
  D:002EH         SYMBOL        val
  C:2DDAH         LINE#         313
  C:2DE3H         LINE#         314
  C:2DE3H         LINE#         315
  C:2DE7H         LINE#         316
  C:2DE7H         LINE#         317
  C:2DEDH         LINE#         318
  C:2DEFH         LINE#         319
  C:2DF1H         LINE#         321
  C:2DF1H         LINE#         322
  C:2DF9H         LINE#         323
  C:2DF9H         LINE#         324
  C:2E2AH         LINE#         326
  C:2E38H         LINE#         327
  C:2E3FH         LINE#         328
  C:2E4FH         LINE#         329
  C:2E56H         LINE#         330
  C:2E61H         LINE#         331
  C:2E6EH         LINE#         332
  C:2E7DH         LINE#         333
  C:2E8CH         LINE#         334
  -------         ENDPROC       _SUB_INT32S2STR
  -------         PROC          _SUB_INT16S2STR
  D:0001H         SYMBOL        s
  D:0004H         SYMBOL        val
  C:4754H         LINE#         337
  C:4754H         LINE#         338
  C:4754H         LINE#         339
  C:475CH         LINE#         340
  C:4763H         LINE#         341
  C:4765H         LINE#         342
  C:4767H         LINE#         344
  C:476CH         LINE#         345
  C:476CH         LINE#         346
  -------         ENDPROC       _SUB_INT16S2STR
  -------         PROC          _SUB_INT16U2STR
  D:002BH         SYMBOL        s
  D:002EH         SYMBOL        val
  C:3581H         LINE#         349
  C:358BH         LINE#         350
  C:358BH         LINE#         351
  C:3594H         LINE#         352
  C:359BH         LINE#         353
  C:35A8H         LINE#         354
  C:35B7H         LINE#         355
  C:35C0H         LINE#         356
  C:35C7H         LINE#         357
  C:35DBH         LINE#         358
BL51 BANKED LINKER/LOCATER V6.22                                                      06/25/2018  15:28:32  PAGE 74


  -------         ENDPROC       _SUB_INT16U2STR
  -------         PROC          _SUB_INT8U2STR
  D:0001H         SYMBOL        s
  D:0005H         SYMBOL        val
  C:0003H         LINE#         361
  C:0003H         LINE#         362
  C:0003H         LINE#         363
  C:000AH         LINE#         364
  C:0014H         LINE#         365
  -------         ENDPROC       _SUB_INT8U2STR
  -------         PROC          _SUB_SBUFSWITCH
  D:0035H         SYMBOL        buf
  D:0038H         SYMBOL        i
  D:0039H         SYMBOL        j
  -------         DO            
  D:003AH         SYMBOL        temp
  -------         ENDDO         
  C:421BH         LINE#         431
  C:4223H         LINE#         432
  C:4223H         LINE#         435
  C:4231H         LINE#         436
  C:423FH         LINE#         437
  -------         ENDPROC       _SUB_SBUFSWITCH
  -------         PROC          _SUB_UBUFSWITCH
  D:0035H         SYMBOL        buf
  D:0005H         SYMBOL        i
  D:0039H         SYMBOL        j
  -------         DO            
  D:003AH         SYMBOL        temp
  -------         ENDDO         
  C:415FH         LINE#         451
  C:4165H         LINE#         452
  C:4165H         LINE#         455
  C:4174H         LINE#         456
  C:418FH         LINE#         457
  -------         ENDPROC       _SUB_UBUFSWITCH
  -------         PROC          _SUB_BUFBUBBLE
  D:002CH         SYMBOL        id
  D:002FH         SYMBOL        x
  D:0032H         SYMBOL        n
  -------         DO            
  D:0033H         SYMBOL        i
  D:0034H         SYMBOL        j
  -------         ENDDO         
  C:3953H         LINE#         460
  C:3959H         LINE#         461
  C:3959H         LINE#         463
  C:3963H         LINE#         464
  C:396FH         LINE#         465
  C:3991H         LINE#         466
  C:399FH         LINE#         467
  C:39ADH         LINE#         468
  C:39ADH         LINE#         469
  C:39B1H         LINE#         470
  C:39B5H         LINE#         471
  -------         ENDPROC       _SUB_BUFBUBBLE
  -------         ENDMOD        SUB
BL51 BANKED LINKER/LOCATER V6.22                                                      06/25/2018  15:28:32  PAGE 75



  -------         MODULE        TIMER
  C:0000H         SYMBOL        _ICE_DUMMY_
  D:0090H         PUBLIC        P1
  D:0017H         SYMBOL        MainTime4En
  D:00A0H         PUBLIC        P2
  C:4258H         PUBLIC        Timer2_ISR
  D:00A7H         PUBLIC        SFRPAGE
  C:4651H         PUBLIC        Timer2_TaskInIsr
  B:00C8H.7       PUBLIC        TF2H
  D:00CCH         PUBLIC        TMR2
  C:4797H         PUBLIC        Timer2_Init
  D:00C8H         PUBLIC        TMR2CN
  D:00CAH         PUBLIC        TMR2RL
  B:00A8H.5       PUBLIC        ET2
  X:0963H         PUBLIC        alarmcnt
  B:00C8H.2       PUBLIC        TR2
  C:496FH         PUBLIC        Timer2_TaskInMain
  D:008EH         PUBLIC        CKCON
  X:0965H         PUBLIC        MainTime4Cnt
  C:4812H         SYMBOL        Com000A
  C:4812H         SYMBOL        L?0011
  -------         PROC          COM000A
  -------         ENDPROC       COM000A
  -------         PROC          TIMER2_INIT
  -------         DO            
  D:0007H         SYMBOL        SfrPage_
  -------         ENDDO         
  C:4797H         LINE#         26
  C:4797H         LINE#         27
  C:4797H         LINE#         28
  C:4799H         LINE#         29
  C:479CH         LINE#         30
  C:479EH         LINE#         31
  C:47A1H         LINE#         32
  C:47A7H         LINE#         33
  C:47ADH         LINE#         34
  C:47AFH         LINE#         35
  C:47B1H         LINE#         36
  C:47B3H         LINE#         37
  C:47B6H         LINE#         40
  -------         ENDPROC       TIMER2_INIT
  -------         PROC          TIMER2_ISR
  C:4258H         LINE#         48
  C:4275H         LINE#         50
  C:4277H         LINE#         51
  C:427AH         LINE#         52
  -------         ENDPROC       TIMER2_ISR
  -------         PROC          TIMER2_TASKINISR
  -------         DO            
  D:0016H         SYMBOL        cnt100ms
  -------         ENDDO         
  C:4651H         LINE#         71
  C:4651H         LINE#         72
  C:4651H         LINE#         75
  C:4654H         LINE#         76
  C:465EH         LINE#         77
BL51 BANKED LINKER/LOCATER V6.22                                                      06/25/2018  15:28:32  PAGE 76


  C:4668H         LINE#         78
  C:4668H         LINE#         79
  C:466BH         LINE#         80
  C:466EH         LINE#         82
  C:466EH         LINE#         84
  C:4675H         LINE#         85
  C:4675H         LINE#         86
  C:4678H         LINE#         87
  C:4678H         LINE#         88
  -------         ENDPROC       TIMER2_TASKINISR
  -------         PROC          TIMER2_TASKINMAIN
  C:496FH         LINE#         96
  C:496FH         LINE#         97
  C:496FH         LINE#         98
  C:4974H         LINE#         99
  C:4977H         LINE#         100
  C:497DH         LINE#         101
  C:4980H         LINE#         103
  C:4980H         LINE#         104
  -------         ENDPROC       TIMER2_TASKINMAIN
  -------         ENDMOD        TIMER

  -------         MODULE        ANGAPP
  C:0000H         SYMBOL        _ICE_DUMMY_
  C:4BE0H         PUBLIC        _SetAngYUsrZero
  C:3E67H         PUBLIC        GetXAngAllSetVal
  D:0090H         PUBLIC        P1
  C:3EB1H         PUBLIC        GetYAngAllSetVal
  D:00A0H         PUBLIC        P2
  C:4BCEH         PUBLIC        _SetAngXSysZero
  C:4BD4H         PUBLIC        _SetAngYSysZero
  C:4551H         PUBLIC        GetAngP
  X:08CAH         PUBLIC        FlashCnt
  X:08CBH         PUBLIC        LedMode
  X:08CCH         SYMBOL        angp
  X:08D0H         PUBLIC        DELAY_X
  X:08D6H         PUBLIC        DELAY_Y
  C:3B7EH         PUBLIC        AngInit
  X:08DCH         SYMBOL        angx_usrzero
  X:08E0H         SYMBOL        angy_usrzero
  C:4B62H         PUBLIC        GetAngXInst
  C:4B69H         PUBLIC        GetAngYInst
  X:08E4H         SYMBOL        angx_syszero
  X:08E8H         SYMBOL        angy_syszero
  C:4BE6H         PUBLIC        _SetAngXInst
  C:4BECH         PUBLIC        _SetAngYInst
  X:08ECH         SYMBOL        angx_inst
  X:08F0H         SYMBOL        angy_inst
  C:31E1H         SYMBOL        _PAngCalc
  X:08F4H         PUBLIC        LedFMode
  C:47B7H         PUBLIC        _SetAngZero
  X:08F5H         PUBLIC        EnDlyTime
  C:4B70H         PUBLIC        GetAngXZeroUsr
  C:4B54H         PUBLIC        GetAngXUsrZero
  C:4B77H         PUBLIC        GetAngYZeroUsr
  C:4B5BH         PUBLIC        GetAngYUsrZero
  C:47F4H         PUBLIC        _SetAngZeroAdd
BL51 BANKED LINKER/LOCATER V6.22                                                      06/25/2018  15:28:32  PAGE 77


  X:08F7H         SYMBOL        BufZerox_usr
  C:4B46H         PUBLIC        GetAngXSysZero
  X:08FBH         SYMBOL        BufZeroy_usr
  C:4B4DH         PUBLIC        GetAngYSysZero
  C:4B7EH         PUBLIC        GetAngXRelSys
  C:4B85H         PUBLIC        GetAngYRelSys
  X:08FFH         PUBLIC        ExDlyTime
  X:0901H         SYMBOL        BufZerox_sys
  X:0905H         SYMBOL        BufZeroy_sys
  C:4BDAH         PUBLIC        _SetAngXUsrZero
  C:4600H         SYMBOL        Com0019
  C:4600H         SYMBOL        L?0026
  C:4600H         SYMBOL        L?0027
  C:4609H         SYMBOL        L?0028
  C:4614H         SYMBOL        L?0029
  C:461DH         SYMBOL        L?0030
  C:4620H         SYMBOL        L?0031
  -------         PROC          COM0019
  -------         ENDPROC       COM0019
  -------         PROC          ANGINIT
  C:3B7EH         LINE#         34
  C:3B7EH         LINE#         35
  C:3B7EH         LINE#         36
  C:3B81H         LINE#         38
  C:3B8BH         LINE#         39
  C:3B91H         LINE#         40
  C:3B97H         LINE#         41
  C:3B9DH         LINE#         42
  C:3BA3H         LINE#         43
  C:3BA9H         LINE#         44
  C:3BAFH         LINE#         46
  C:3BB9H         LINE#         47
  C:3BC3H         LINE#         48
  C:3BCDH         LINE#         49
  C:3BD7H         LINE#         51
  -------         ENDPROC       ANGINIT
  -------         PROC          _PANGCALC
  D:0004H         SYMBOL        angx
  D:003EH         SYMBOL        angy
  -------         DO            
  D:0042H         SYMBOL        x
  D:0004H         SYMBOL        y
  D:0046H         SYMBOL        s
  -------         ENDDO         
  C:31E1H         LINE#         59
  C:31E1H         LINE#         60
  C:31E1H         LINE#         63
  C:31E8H         LINE#         64
  C:31EEH         LINE#         65
  C:31F4H         LINE#         66
  C:31FFH         LINE#         68
  C:320BH         LINE#         69
  C:3211H         LINE#         70
  C:3214H         LINE#         71
  C:321FH         LINE#         73
  C:3235H         LINE#         74
  C:3249H         LINE#         75
BL51 BANKED LINKER/LOCATER V6.22                                                      06/25/2018  15:28:32  PAGE 78


  C:3249H         LINE#         76
  C:3252H         LINE#         77
  C:3252H         LINE#         78
  C:3276H         LINE#         79
  C:3279H         LINE#         80
  -------         ENDPROC       _PANGCALC
  -------         PROC          GETANGP
  C:4551H         LINE#         88
  C:4551H         LINE#         89
  C:4551H         LINE#         91
  C:4578H         LINE#         92
  C:457EH         LINE#         93
  -------         ENDPROC       GETANGP
  -------         PROC          GETANGXSYSZERO
  C:4B46H         LINE#         95
  C:4B46H         LINE#         96
  C:4B46H         LINE#         97
  C:4B4CH         LINE#         98
  -------         ENDPROC       GETANGXSYSZERO
  -------         PROC          GETANGYSYSZERO
  C:4B4DH         LINE#         99
  C:4B4DH         LINE#         100
  C:4B4DH         LINE#         101
  C:4B53H         LINE#         102
  -------         ENDPROC       GETANGYSYSZERO
  -------         PROC          GETANGXUSRZERO
  C:4B54H         LINE#         103
  C:4B54H         LINE#         104
  C:4B54H         LINE#         105
  C:4B5AH         LINE#         106
  -------         ENDPROC       GETANGXUSRZERO
  -------         PROC          GETANGYUSRZERO
  C:4B5BH         LINE#         107
  C:4B5BH         LINE#         108
  C:4B5BH         LINE#         109
  C:4B61H         LINE#         110
  -------         ENDPROC       GETANGYUSRZERO
  -------         PROC          GETANGXINST
  C:4B62H         LINE#         112
  C:4B62H         LINE#         113
  C:4B62H         LINE#         114
  C:4B68H         LINE#         115
  -------         ENDPROC       GETANGXINST
  -------         PROC          GETANGYINST
  C:4B69H         LINE#         116
  C:4B69H         LINE#         117
  C:4B69H         LINE#         118
  C:4B6FH         LINE#         119
  -------         ENDPROC       GETANGYINST
  -------         PROC          GETANGXZEROUSR
  C:4B70H         LINE#         123
  C:4B70H         LINE#         124
  C:4B70H         LINE#         125
  C:4B76H         LINE#         126
  -------         ENDPROC       GETANGXZEROUSR
  -------         PROC          GETANGYZEROUSR
  C:4B77H         LINE#         127
BL51 BANKED LINKER/LOCATER V6.22                                                      06/25/2018  15:28:32  PAGE 79


  C:4B77H         LINE#         128
  C:4B77H         LINE#         129
  C:4B7DH         LINE#         130
  -------         ENDPROC       GETANGYZEROUSR
  -------         PROC          GETANGXRELSYS
  C:4B7EH         LINE#         132
  C:4B7EH         LINE#         133
  C:4B7EH         LINE#         134
  C:4B84H         LINE#         135
  -------         ENDPROC       GETANGXRELSYS
  -------         PROC          GETANGYRELSYS
  C:4B85H         LINE#         136
  C:4B85H         LINE#         137
  C:4B85H         LINE#         138
  C:4B8BH         LINE#         139
  -------         ENDPROC       GETANGYRELSYS
  -------         PROC          _SETANGXSYSZERO
  D:0004H         SYMBOL        zore
  C:4BCEH         LINE#         148
  C:4BCEH         LINE#         149
  C:4BCEH         LINE#         150
  -------         ENDPROC       _SETANGXSYSZERO
  -------         PROC          _SETANGYSYSZERO
  D:0004H         SYMBOL        zore
  C:4BD4H         LINE#         152
  C:4BD4H         LINE#         153
  C:4BD4H         LINE#         154
  -------         ENDPROC       _SETANGYSYSZERO
  -------         PROC          _SETANGXUSRZERO
  D:0004H         SYMBOL        zore
  C:4BDAH         LINE#         157
  C:4BDAH         LINE#         158
  C:4BDAH         LINE#         159
  -------         ENDPROC       _SETANGXUSRZERO
  -------         PROC          _SETANGYUSRZERO
  D:0004H         SYMBOL        zore
  C:4BE0H         LINE#         161
  C:4BE0H         LINE#         162
  C:4BE0H         LINE#         163
  -------         ENDPROC       _SETANGYUSRZERO
  -------         PROC          _SETANGXINST
  D:0004H         SYMBOL        ang_inst
  C:4BE6H         LINE#         166
  C:4BE6H         LINE#         167
  C:4BE6H         LINE#         168
  -------         ENDPROC       _SETANGXINST
  -------         PROC          _SETANGYINST
  D:0004H         SYMBOL        ang_inst
  C:4BECH         LINE#         170
  C:4BECH         LINE#         171
  C:4BECH         LINE#         172
  -------         ENDPROC       _SETANGYINST
  -------         PROC          _SETANGZERO
  D:0001H         SYMBOL        angval
  D:003EH         SYMBOL        setval
  C:47B7H         LINE#         184
  C:47BFH         LINE#         185
BL51 BANKED LINKER/LOCATER V6.22                                                      06/25/2018  15:28:32  PAGE 80


  C:47BFH         LINE#         186
  -------         ENDPROC       _SETANGZERO
  -------         PROC          _SETANGZEROADD
  D:0001H         SYMBOL        angval
  D:003EH         SYMBOL        setval
  C:47F4H         LINE#         189
  C:47FCH         LINE#         190
  C:47FCH         LINE#         191
  -------         ENDPROC       _SETANGZEROADD
  C:3EA2H         SYMBOL        L?0032
  -------         PROC          GETXANGALLSETVAL
  -------         DO            
  D:003AH         SYMBOL        tmp
  -------         ENDDO         
  C:3E67H         LINE#         200
  C:3E67H         LINE#         201
  C:3E67H         LINE#         203
  C:3E72H         LINE#         204
  C:3E7BH         LINE#         205
  C:3E84H         LINE#         206
  C:3E87H         LINE#         207
  C:3E90H         LINE#         208
  C:3E99H         LINE#         209
  C:3EA1H         LINE#         211
  -------         ENDPROC       GETXANGALLSETVAL
  C:3EECH         SYMBOL        L?0033
  -------         PROC          GETYANGALLSETVAL
  -------         DO            
  D:003AH         SYMBOL        tmp
  -------         ENDDO         
  C:3EB1H         LINE#         219
  C:3EB1H         LINE#         220
  C:3EB1H         LINE#         222
  C:3EBCH         LINE#         223
  C:3EC5H         LINE#         224
  C:3ECEH         LINE#         225
  C:3ED1H         LINE#         226
  C:3EDAH         LINE#         227
  C:3EE3H         LINE#         228
  C:3EEBH         LINE#         229
  -------         ENDPROC       GETYANGALLSETVAL
  -------         ENDMOD        ANGAPP

  -------         MODULE        ?C?FPADD
  C:0055H         PUBLIC        ?C?FPADD
  C:0051H         PUBLIC        ?C?FPSUB
  -------         ENDMOD        ?C?FPADD

  -------         MODULE        ?C?FPMUL
  C:0146H         PUBLIC        ?C?FPMUL
  -------         ENDMOD        ?C?FPMUL

  -------         MODULE        ?C?FPDIV
  C:024FH         PUBLIC        ?C?FPDIV
  -------         ENDMOD        ?C?FPDIV

  -------         MODULE        ?C?FPCMP
BL51 BANKED LINKER/LOCATER V6.22                                                      06/25/2018  15:28:32  PAGE 81


  C:02EEH         PUBLIC        ?C?FPCMP
  C:02ECH         PUBLIC        ?C?FPCMP3
  -------         ENDMOD        ?C?FPCMP

  -------         MODULE        ?C?FCAST
  C:0363H         PUBLIC        ?C?FCASTC
  C:035EH         PUBLIC        ?C?FCASTI
  C:0359H         PUBLIC        ?C?FCASTL
  -------         ENDMOD        ?C?FCAST

  -------         MODULE        ?C?CASTF
  C:0397H         PUBLIC        ?C?CASTF
  -------         ENDMOD        ?C?CASTF

  -------         MODULE        SQRT
  C:3007H         PUBLIC        _SQRT
  -------         ENDMOD        SQRT

  -------         MODULE        SIN
  C:218DH         PUBLIC        _COS
  C:21A3H         PUBLIC        _SIN
  C:21D5H         PUBLIC        _TAN
  -------         ENDMOD        SIN

  -------         MODULE        ASIN
  C:42D1H         PUBLIC        _ASIN
  -------         ENDMOD        ASIN

  -------         MODULE        ATAN
  C:2550H         PUBLIC        _ATAN
  -------         ENDMOD        ATAN

  -------         MODULE        ?C?CLDPTR
  C:0465H         PUBLIC        ?C?CLDPTR
  -------         ENDMOD        ?C?CLDPTR

  -------         MODULE        ?C?CLDOPTR
  C:047EH         PUBLIC        ?C?CLDOPTR
  -------         ENDMOD        ?C?CLDOPTR

  -------         MODULE        ?C?CILDPTR
  C:04ABH         PUBLIC        ?C?CILDPTR
  -------         ENDMOD        ?C?CILDPTR

  -------         MODULE        ?C?CSTPTR
  C:04CDH         PUBLIC        ?C?CSTPTR
  -------         ENDMOD        ?C?CSTPTR

  -------         MODULE        ?C?CSTOPTR
  C:04DFH         PUBLIC        ?C?CSTOPTR
  -------         ENDMOD        ?C?CSTOPTR

  -------         MODULE        ?C?IMUL
  C:0501H         PUBLIC        ?C?IMUL
  -------         ENDMOD        ?C?IMUL

  -------         MODULE        ?C?UIDIV
BL51 BANKED LINKER/LOCATER V6.22                                                      06/25/2018  15:28:32  PAGE 82


  C:0513H         PUBLIC        ?C?UIDIV
  -------         ENDMOD        ?C?UIDIV

  -------         MODULE        ?C?SIDIV
  C:0568H         PUBLIC        ?C?SIDIV
  -------         ENDMOD        ?C?SIDIV

  -------         MODULE        ?C?IILDX
  C:059EH         PUBLIC        ?C?IILDX
  -------         ENDMOD        ?C?IILDX

  -------         MODULE        ?C?ILDOPTR
  C:05B4H         PUBLIC        ?C?ILDOPTR
  -------         ENDMOD        ?C?ILDOPTR

  -------         MODULE        ?C?ISTPTR
  C:05ECH         PUBLIC        ?C?ISTPTR
  -------         ENDMOD        ?C?ISTPTR

  -------         MODULE        ?C?ISTOPTR
  C:060BH         PUBLIC        ?C?ISTOPTR
  -------         ENDMOD        ?C?ISTOPTR

  -------         MODULE        ?C?LADD
  C:0638H         PUBLIC        ?C?LADD
  -------         ENDMOD        ?C?LADD

  -------         MODULE        ?C?LMUL
  C:0645H         PUBLIC        ?C?LMUL
  -------         ENDMOD        ?C?LMUL

  -------         MODULE        ?C?ULDIV
  C:06D0H         PUBLIC        ?C?ULDIV
  -------         ENDMOD        ?C?ULDIV

  -------         MODULE        ?C?SLDIV
  C:3FD0H         PUBLIC        ?C?SLDIV
  -------         ENDMOD        ?C?SLDIV

  -------         MODULE        ?C?LNEG
  C:0762H         PUBLIC        ?C?LNEG
  -------         ENDMOD        ?C?LNEG

  -------         MODULE        ?C?SLCMP
  C:0770H         PUBLIC        ?C?SLCMP
  -------         ENDMOD        ?C?SLCMP

  -------         MODULE        ?C?ULCMP
  C:0786H         PUBLIC        ?C?ULCMP
  -------         ENDMOD        ?C?ULCMP

  -------         MODULE        ?C?ULSHR
  C:0797H         PUBLIC        ?C?ULSHR
  -------         ENDMOD        ?C?ULSHR

  -------         MODULE        ?C?LSHL
  C:07AAH         PUBLIC        ?C?LSHL
BL51 BANKED LINKER/LOCATER V6.22                                                      06/25/2018  15:28:32  PAGE 83


  -------         ENDMOD        ?C?LSHL

  -------         MODULE        ?C?LLDPTR
  C:07BDH         PUBLIC        ?C?LLDPTR
  -------         ENDMOD        ?C?LLDPTR

  -------         MODULE        ?C?LLDOPTR
  C:07DDH         PUBLIC        ?C?LLDOPTR
  -------         ENDMOD        ?C?LLDOPTR

  -------         MODULE        ?C?LSTPTR
  C:080DH         PUBLIC        ?C?LSTPTR
  -------         ENDMOD        ?C?LSTPTR

  -------         MODULE        ?C?LSTOPTR
  C:0827H         PUBLIC        ?C?LSTOPTR
  -------         ENDMOD        ?C?LSTOPTR

  -------         MODULE        ?C?LLDXDATA
  C:084BH         PUBLIC        ?C?LLDXDATA
  -------         ENDMOD        ?C?LLDXDATA

  -------         MODULE        ?C?LLDCODE
  C:0857H         PUBLIC        ?C?LLDCODE
  -------         ENDMOD        ?C?LLDCODE

  -------         MODULE        ?C?LLDXDATA0
  C:0867H         PUBLIC        ?C?LLDXDATA0
  -------         ENDMOD        ?C?LLDXDATA0

  -------         MODULE        ?C?LLDCODE0
  C:0873H         PUBLIC        ?C?LLDCODE0
  -------         ENDMOD        ?C?LLDCODE0

  -------         MODULE        ?C?LLDOPTR0
  C:0883H         PUBLIC        ?C?LLDOPTR0
  -------         ENDMOD        ?C?LLDOPTR0

  -------         MODULE        ?C?LSTXDATA
  C:08B3H         PUBLIC        ?C?LSTXDATA
  -------         ENDMOD        ?C?LSTXDATA

  -------         MODULE        ?C?LSTKXDATA
  C:08BFH         PUBLIC        ?C?LSTKXDATA
  -------         ENDMOD        ?C?LSTKXDATA

  -------         MODULE        ?C?LSTKOPTR
  C:08F0H         PUBLIC        ?C?LSTKOPTR
  -------         ENDMOD        ?C?LSTKOPTR

  -------         MODULE        ?C?OFFXADD
  C:0914H         PUBLIC        ?C?OFFXADD
  -------         ENDMOD        ?C?OFFXADD

  -------         MODULE        ?C?PLDIIDATA
  C:0920H         PUBLIC        ?C?PLDIIDATA
  -------         ENDMOD        ?C?PLDIIDATA
BL51 BANKED LINKER/LOCATER V6.22                                                      06/25/2018  15:28:32  PAGE 84



  -------         MODULE        ?C?PLDXDATA
  C:0930H         PUBLIC        ?C?PLDXDATA
  -------         ENDMOD        ?C?PLDXDATA

  -------         MODULE        ?C?PSTXDATA
  C:0939H         PUBLIC        ?C?PSTXDATA
  -------         ENDMOD        ?C?PSTXDATA

  -------         MODULE        ?C?PLDOPTR
  C:0942H         PUBLIC        ?C?PLDOPTR
  -------         ENDMOD        ?C?PLDOPTR

  -------         MODULE        ?C?PSTOPTR
  C:0972H         PUBLIC        ?C?PSTOPTR
  -------         ENDMOD        ?C?PSTOPTR

  -------         MODULE        ?C?CCASE
  C:09CBH         PUBLIC        ?C?CCASE
  -------         ENDMOD        ?C?CCASE

  -------         MODULE        ?C?ICASE
  C:09F1H         PUBLIC        ?C?ICASE
  -------         ENDMOD        ?C?ICASE

  -------         MODULE        ?C?ICALL
  C:0A1EH         PUBLIC        ?C?ICALL
  C:0A22H         PUBLIC        ?C?ICALL2
  -------         ENDMOD        ?C?ICALL

  -------         MODULE        STRNCMP
  D:002BH         PUBLIC        ?_strncmp?BYTE
  C:36D6H         PUBLIC        _strncmp
  -------         ENDMOD        STRNCMP

  -------         MODULE        STRNCPY
  D:0025H         PUBLIC        ?_strncpy?BYTE
  C:3D7CH         PUBLIC        _strncpy
  -------         ENDMOD        STRNCPY

  -------         MODULE        ?C?LLDIDATA
  C:0A24H         PUBLIC        ?C?LLDIDATA
  -------         ENDMOD        ?C?LLDIDATA

  -------         MODULE        ?C?LLDPDATA
  C:0A30H         PUBLIC        ?C?LLDPDATA
  -------         ENDMOD        ?C?LLDPDATA

  -------         MODULE        ?C?LLDIDATA0
  C:0A3CH         PUBLIC        ?C?LLDIDATA0
  -------         ENDMOD        ?C?LLDIDATA0

  -------         MODULE        ?C?LLDPDATA0
  C:0A49H         PUBLIC        ?C?LLDPDATA0
  -------         ENDMOD        ?C?LLDPDATA0

  -------         MODULE        ?C?LSTIDATA
BL51 BANKED LINKER/LOCATER V6.22                                                      06/25/2018  15:28:32  PAGE 85


  C:0A56H         PUBLIC        ?C?LSTIDATA
  -------         ENDMOD        ?C?LSTIDATA

  -------         MODULE        ?C?LSTPDATA
  C:0A62H         PUBLIC        ?C?LSTPDATA
  -------         ENDMOD        ?C?LSTPDATA

  -------         MODULE        ?C?LSTKIDATA
  C:0A6EH         PUBLIC        ?C?LSTKIDATA
  -------         ENDMOD        ?C?LSTKIDATA

  -------         MODULE        ?C?LSTKPDATA
  C:0A87H         PUBLIC        ?C?LSTKPDATA
  -------         ENDMOD        ?C?LSTKPDATA

  -------         MODULE        ?C?PLDIDATA
  C:0AA0H         PUBLIC        ?C?PLDIDATA
  -------         ENDMOD        ?C?PLDIDATA

  -------         MODULE        ?C?PSTIDATA
  C:0AA9H         PUBLIC        ?C?PSTIDATA
  -------         ENDMOD        ?C?PSTIDATA

  -------         MODULE        ?C?PLDPDATA
  C:0AB2H         PUBLIC        ?C?PLDPDATA
  -------         ENDMOD        ?C?PLDPDATA

  -------         MODULE        ?C?PSTPDATA
  C:0ABBH         PUBLIC        ?C?PSTPDATA
  -------         ENDMOD        ?C?PSTPDATA

  -------         MODULE        ?C?PLDCODE
  C:0AC4H         PUBLIC        ?C?PLDCODE
  -------         ENDMOD        ?C?PLDCODE

Program Size: data=107.4 xdata=2408 code=19463
LINK/LOCATE RUN COMPLETE.  0 WARNING(S),  0 ERROR(S)
